HI-TECH Software C Compiler 

Linker command line:

--edf=C:\Program Files (x86)\HI-TECH Software\PICC\9.82\dat\en_msgs.txt -cs \
  -h+C_PuertoSerial_usar.sym -z -Q16F887 -ol.obj -MC_PuertoSerial_usar.map \
  -E1 -ACONST=00h-0FFhx32 -ACODE=00h-07FFhx4 -ASTRCODE=00h-01FFFh \
  -AENTRY=00h-0FFhx32 -ASTRING=00h-0FFhx32 -ABANK0=020h-06Fh \
  -ABANK1=0A0h-0EFh -ABANK2=0110h-016Fh -ABANK3=0190h-01EFh \
  -ARAM=020h-06Fh,0A0h-0EFh,0110h-016Fh,0190h-01EFh \
  -AABS1=020h-07Fh,0A0h-0EFh,0110h-016Fh,0190h-01EFh -ACOMMON=070h-07Fh \
  -ASFR0=00h-01Fh -ASFR1=080h-09Fh -ASFR2=0100h-010Fh -ASFR3=0180h-018Fh \
  -preset_vec=00h,intentry,init,end_init -ppowerup=CODE -pfunctab=CODE \
  -ACONFIG=02007h-02008h -pconfig=CONFIG -DCONFIG=2 -AIDLOC=02000h-02003h \
  -pidloc=IDLOC -DIDLOC=2 -AEEDATA=00h-0FFh/02100h -peeprom_data=EEDATA \
  -DEEDATA=2 -DCODE=2 -DSTRCODE=2 -DSTRING=2 -DCONST=2 -DENTRY=2 -k \
  startup.obj C_PuertoSerial_usar.obj 

Object code version is 3.10

Machine type is 16F887



                Name                               Link     Load   Length Selector   Space Scale
startup.obj     end_init                              0        0        3        0       0
C_PuertoSerial_usar.obj
                config                             2007     2007        2     400E       0
                text578                             9FC      9FC        8     13F8       0
                text576                             AD8      AD8       78     15B0       0
                text575                             B50      B50       C2     16A0       0
                text561                             A49      A49       40     1492       0
                text558                             A0C      A0C       1D     1418       0
                text557                             A29      A29       20     1452       0
                text555                             CEA      CEA      152     19D4       0
                text553                             C12      C12       D8     1824       0
                text550                             A89      A89       4F     1512       0
                text549                               E        E      7F2       1C       0
                maintext                            E3C      E3C      1C4     1C78       0
                cstackBANK0                          20       20       3C       20       1
                cstackCOMMON                         70       70        E       70       1
                cstackBANK1                          A0       A0       2C       A0       1
                clrtext                             A04      A04        8     1408       0
                bssBANK1                             CC       CC       16       A0       1
                cinit                                 3        3        B        0       0
                strings                             800      800       8E     1000       0

TOTAL           Name                               Link     Load   Length     Space
        CLASS   CONST          

        CLASS   CODE           
                end_init                              0        0        3         0
                text578                             9FC      9FC        8         0
                text576                             AD8      AD8       78         0
                text575                             B50      B50       C2         0
                text561                             A49      A49       40         0
                text558                             A0C      A0C       1D         0
                text557                             A29      A29       20         0
                text555                             CEA      CEA      152         0
                text553                             C12      C12       D8         0
                text550                             A89      A89       4F         0
                text549                               E        E      7F2         0
                maintext                            E3C      E3C      1C4         0
                clrtext                             A04      A04        8         0
                cinit                                 3        3        B         0

        CLASS   STRCODE        

        CLASS   ENTRY          

        CLASS   STRING         
                strings                             800      800       8E         0

        CLASS   BANK0          
                cstackBANK0                          20       20       3C         1

        CLASS   BANK1          
                cstackBANK1                          A0       A0       2C         1
                bssBANK1                             CC       CC       16         1

        CLASS   BANK2          

        CLASS   BANK3          

        CLASS   RAM            

        CLASS   ABS1           
                abs_s1                               7E       7E        2         1

        CLASS   COMMON         
                cstackCOMMON                         70       70        E         1

        CLASS   SFR0           

        CLASS   SFR1           

        CLASS   SFR2           

        CLASS   SFR3           

        CLASS   CONFIG         
                config                             2007     2007        2         0

        CLASS   IDLOC          

        CLASS   EEDATA         



SEGMENTS        Name                           Load    Length   Top    Selector   Space  Class     Delta

                reset_vec                      000000  00000E  00000E         0       0  CODE        2
                text549                        00000E  0007F2  000800        1C       0  CODE        2
                cstackBANK0                    000020  00003C  00005C        20       1  BANK0       1
                cstackCOMMON                   000070  00000E  00007E        70       1  COMMON      1
                cstackBANK1                    0000A0  000042  0000E2        A0       1  BANK1       1
                strings                        000800  00008E  00088E      1000       0  STRING      2
                text578                        0009FC  000008  000A04      13F8       0  CODE        2
                clrtext                        000A04  000008  000A0C      1408       0  CODE        2
                text558                        000A0C  00001D  000A29      1418       0  CODE        2
                text557                        000A29  000020  000A49      1452       0  CODE        2
                text561                        000A49  000040  000A89      1492       0  CODE        2
                text550                        000A89  00004F  000AD8      1512       0  CODE        2
                text576                        000AD8  000078  000B50      15B0       0  CODE        2
                text575                        000B50  0000C2  000C12      16A0       0  CODE        2
                text553                        000C12  0000D8  000CEA      1824       0  CODE        2
                text555                        000CEA  000152  000E3C      19D4       0  CODE        2
                maintext                       000E3C  0001C4  001000      1C78       0  CODE        2
                config                         002007  000002  002009      400E       0  CONFIG      2


UNUSED ADDRESS RANGES

        Name                Unused          Largest block    Delta
        BANK0            005C-006F             14           1
        BANK1            00E2-00EF              E           1
        BANK2            0110-016F             60           1
        BANK3            0190-01EF             60           1
        CODE             088E-09FB            16E           2
                         1000-1FFF            800
        CONST            088E-09FB             72           2
                         1000-1FFF            100
        EEDATA           2100-21FF            100           2
        ENTRY            088E-09FB             72           2
                         1000-1FFF            100
        IDLOC            2000-2003              4           2
        RAM              005C-006F             14           1
                         00E2-00EF              E
                         0110-016F             60
                         0190-01EF             60
        SFR0             0000-001F             20           1
        SFR1             0080-009F             20           1
        SFR2             0100-010F             10           1
        SFR3             0180-018F             10           1
        STRCODE          088E-09FB            16E           2
                         1000-1FFF           1000
        STRING           088E-09FB             72           2
                         1000-1FFF            100

                                  Symbol Table

??___awdiv             cstackCOMMON 007A
??___awmod             cstackCOMMON 0074
??___awtoft            cstackCOMMON 007B
??___bmul              cstackCOMMON 007A
??___ftadd             cstackBANK0  0042
??___ftge              cstackCOMMON 0076
??___ftmul             cstackBANK0  0033
??___ftneg             cstackCOMMON 0073
??___ftpack            cstackCOMMON 0075
??___ftsub             cstackCOMMON 007E
??___fttol             cstackBANK0  0024
??___lbdiv             cstackCOMMON 0076
??___lbmod             cstackCOMMON 0071
??___lldiv             cstackCOMMON 0078
??___llmod             cstackCOMMON 007D
??___lltoft            cstackCOMMON 007C
??___wmul              cstackCOMMON 0074
??__div_to_l_          cstackCOMMON 0076
??__tdiv_to_l_         cstackCOMMON 0076
??_fround              cstackCOMMON 007E
??_getch               cstackCOMMON 0070
??_gets_Serial         cstackCOMMON 0070
??_lcd_clear           cstackCOMMON 0075
??_lcd_goto            cstackCOMMON 0075
??_lcd_puts            cstackCOMMON 0075
??_lcd_write           cstackCOMMON 0074
??_main                cstackBANK0  005B
??_msecbase            cstackCOMMON 0070
??_pause               cstackCOMMON 0072
??_putch               cstackCOMMON 0070
??_scale               cstackBANK0  003F
??_sprintf             cstackBANK0  0056
?___awdiv              cstackCOMMON 0076
?___awmod              cstackCOMMON 0070
?___awtoft             cstackCOMMON 0078
?___bmul               cstackCOMMON 0079
?___ftadd              cstackBANK0  003C
?___ftge               cstackCOMMON 0070
?___ftmul              cstackBANK0  002D
?___ftneg              cstackCOMMON 0070
?___ftpack             cstackCOMMON 0070
?___ftsub              cstackBANK0  0048
?___fttol              cstackBANK0  0020
?___lbdiv              cstackCOMMON 0075
?___lbmod              cstackCOMMON 0070
?___lldiv              cstackCOMMON 0070
?___llmod              cstackBANK0  0020
?___lltoft             cstackCOMMON 0078
?___wmul               cstackCOMMON 0070
?__div_to_l_           cstackCOMMON 0070
?__tdiv_to_l_          cstackCOMMON 0070
?_fround               cstackBANK0  0048
?_getch                cstackCOMMON 0070
?_gets_Serial          cstackCOMMON 0070
?_lcd_clear            cstackCOMMON 0070
?_lcd_goto             cstackCOMMON 0070
?_lcd_puts             cstackCOMMON 0070
?_lcd_write            cstackCOMMON 0070
?_main                 cstackCOMMON 0070
?_msecbase             cstackCOMMON 0070
?_pause                cstackCOMMON 0070
?_putch                cstackCOMMON 0070
?_scale                cstackBANK0  003C
?_sprintf              cstackBANK0  0052
_ADCON0                (abs)        001F
_ADCON1                (abs)        009F
_ADRESH                (abs)        001E
_ADRESL                (abs)        009E
_ANSEL                 (abs)        0188
_ANSELH                (abs)        0189
_BAUDCTL               (abs)        0187
_CCP1CON               (abs)        0017
_CCP2CON               (abs)        001D
_CCPR1L                (abs)        0015
_GO_DONE               (abs)        00F9
_OPTION_REG            (abs)        0081
_OSCCON                (abs)        008F
_PORTA                 (abs)        0005
_PORTD                 (abs)        0008
_PR2                   (abs)        0092
_RA6                   (abs)        002E
_RA7                   (abs)        002F
_RCIF                  (abs)        0065
_RCREG                 (abs)        001A
_RCSTA                 (abs)        0018
_RE1                   (abs)        0049
_SPBRG                 (abs)        0099
_T0IF                  (abs)        005A
_T2CKPS0               (abs)        0090
_T2CKPS1               (abs)        0091
_TMR0                  (abs)        0001
_TMR2ON                (abs)        0092
_TRISA                 (abs)        0085
_TRISB                 (abs)        0086
_TRISC6                (abs)        043E
_TRISC7                (abs)        043F
_TRISD                 (abs)        0088
_TRISE                 (abs)        0089
_TXIF                  (abs)        0064
_TXREG                 (abs)        0019
_TXSTA                 (abs)        0098
__Habs1                abs1         0000
__Hbank0               bank0        0000
__Hbank1               bank1        0000
__Hbank2               bank2        0000
__Hbank3               bank3        0000
__HbssBANK1            bssBANK1     0000
__Hcinit               cinit        0000
__Hclrtext             clrtext      0000
__Hcode                code         0000
__Hcommon              common       0000
__Hconfig              config       2009
__HcstackBANK0         cstackBANK0  0000
__HcstackBANK1         cstackBANK1  0000
__HcstackCOMMON        cstackCOMMON 0000
__Heeprom_data         eeprom_data  0000
__Hend_init            end_init     0003
__Hfunctab             functab      0000
__Hidloc               idloc        0000
__Hinit                init         0000
__Hintentry            intentry     0000
__Hmaintext            maintext     0000
__Hpa_nodes            pa_nodes     0000
__Hpowerup             powerup      0000
__Hram                 ram          0000
__Hreset_vec           reset_vec    0000
__Hsfr0                sfr0         0000
__Hsfr1                sfr1         0000
__Hsfr2                sfr2         0000
__Hsfr3                sfr3         0000
__Hstrings             strings      0000
__Htext                text         0000
__Labs1                abs1         0000
__Lbank0               bank0        0000
__Lbank1               bank1        0000
__Lbank2               bank2        0000
__Lbank3               bank3        0000
__LbssBANK1            bssBANK1     0000
__Lcinit               cinit        0000
__Lclrtext             clrtext      0000
__Lcode                code         0000
__Lcommon              common       0000
__Lconfig              config       2007
__LcstackBANK0         cstackBANK0  0000
__LcstackBANK1         cstackBANK1  0000
__LcstackCOMMON        cstackCOMMON 0000
__Leeprom_data         eeprom_data  0000
__Lend_init            end_init     0000
__Lfunctab             functab      0000
__Lidloc               idloc        0000
__Linit                init         0000
__Lintentry            intentry     0000
__Lmaintext            maintext     0000
__Lpa_nodes            pa_nodes     0000
__Lpowerup             powerup      0000
__Lram                 ram          0000
__Lreset_vec           reset_vec    0000
__Lsfr0                sfr0         0000
__Lsfr1                sfr1         0000
__Lsfr2                sfr2         0000
__Lsfr3                sfr3         0000
__Lstrings             strings      0000
__Ltext                text         0000
__S0                   (abs)        2009
__S1                   (abs)        00E2
__S2                   (abs)        0000
___awdiv               text549      04C3
___awdiv@counter       cstackCOMMON 007A
___awdiv@dividend      cstackCOMMON 0078
___awdiv@divisor       cstackCOMMON 0076
___awdiv@quotient      cstackCOMMON 007C
___awdiv@sign          cstackCOMMON 007B
___awmod               text549      0508
___awmod@counter       cstackCOMMON 0074
___awmod@dividend      cstackCOMMON 0072
___awmod@divisor       cstackCOMMON 0070
___awmod@sign          cstackCOMMON 0075
___awtoft              text558      0A0C
___awtoft@c            cstackCOMMON 0078
___awtoft@sign         cstackCOMMON 007B
___bmul                text549      05B4
___bmul@multiplicand   cstackCOMMON 0079
___bmul@multiplier     cstackCOMMON 007B
___bmul@product        cstackCOMMON 007A
___ftadd               text553      0C28
___ftadd@exp1          cstackBANK0  0047
___ftadd@exp2          cstackBANK0  0046
___ftadd@f1            cstackBANK0  003C
___ftadd@f2            cstackBANK0  003F
___ftadd@sign          cstackBANK0  0045
___ftge                text549      0600
___ftge@ff1            cstackCOMMON 0070
___ftge@ff2            cstackCOMMON 0073
___ftmul               text549      0545
___ftmul@cntr          cstackBANK0  003A
___ftmul@exp           cstackBANK0  0036
___ftmul@f1            cstackBANK0  002D
___ftmul@f2            cstackBANK0  0030
___ftmul@f3_as_product cstackBANK0  0037
___ftmul@sign          cstackBANK0  003B
___ftneg               text549      07F8
___ftneg@f1            cstackCOMMON 0070
___ftpack              text549      05C2
___ftpack@arg          cstackCOMMON 0070
___ftpack@exp          cstackCOMMON 0073
___ftpack@sign         cstackCOMMON 0074
___ftsub               text553      0C12
___ftsub@f1            cstackBANK0  004B
___ftsub@f2            cstackBANK0  0048
___fttol               text549      062C
___fttol@exp1          cstackBANK0  002C
___fttol@f1            cstackBANK0  0020
___fttol@lval          cstackBANK0  0028
___fttol@sign1         cstackBANK0  0027
___lbdiv               text555      0DEF
___lbdiv@counter       cstackCOMMON 0077
___lbdiv@dividend      cstackCOMMON 0076
___lbdiv@divisor       cstackCOMMON 0075
___lbdiv@quotient      cstackCOMMON 0078
___lbmod               text555      0E0A
___lbmod@counter       cstackCOMMON 0073
___lbmod@dividend      cstackCOMMON 0072
___lbmod@divisor       cstackCOMMON 0070
___lbmod@rem           cstackCOMMON 0074
___lldiv               text549      07B0
___lldiv@counter       cstackCOMMON 007C
___lldiv@dividend      cstackCOMMON 0074
___lldiv@divisor       cstackCOMMON 0070
___lldiv@quotient      cstackCOMMON 0078
___llmod               text549      0687
___llmod@counter       cstackCOMMON 007D
___llmod@dividend      cstackBANK0  0024
___llmod@divisor       cstackBANK0  0020
___lltoft              text557      0A29
___lltoft@c            cstackCOMMON 0078
___lltoft@exp          cstackCOMMON 007C
___wmul                text549      06C5
___wmul@multiplicand   cstackCOMMON 0072
___wmul@multiplier     cstackCOMMON 0070
___wmul@product        cstackCOMMON 0074
__div_to_l_            text575      0B50
__div_to_l_@cntr       cstackBANK0  0024
__div_to_l_@exp1       cstackBANK0  0025
__div_to_l_@f1         cstackCOMMON 0070
__div_to_l_@f2         cstackCOMMON 0073
__div_to_l_@quot       cstackBANK0  0020
__end_of___awdiv       text549      0508
__end_of___awmod       text549      0545
__end_of___awtoft      text558      0A29
__end_of___bmul        text549      05C2
__end_of___ftadd       text553      0CEA
__end_of___ftge        text549      062C
__end_of___ftmul       text549      05B4
__end_of___ftneg       text549      0800
__end_of___ftpack      text549      0600
__end_of___ftsub       text553      0C28
__end_of___fttol       text549      0687
__end_of___lbdiv       text555      0E0A
__end_of___lbmod       text555      0E26
__end_of___lldiv       text549      07F8
__end_of___llmod       text549      06C5
__end_of___lltoft      text557      0A49
__end_of___wmul        text549      06DE
__end_of__div_to_l_    text575      0C05
__end_of__tdiv_to_l_   text576      0B50
__end_of_fround        text555      0DEF
__end_of_getch         text561      0A89
__end_of_gets_Serial   text561      0A83
__end_of_lcd_clear     text550      0A9B
__end_of_lcd_goto      text550      0A90
__end_of_lcd_puts      text550      0AAA
__end_of_lcd_write     text550      0ABC
__end_of_main          maintext     1000
__end_of_msecbase      text550      0AD8
__end_of_pause         text550      0ACD
__end_of_putch         text578      0A04
__end_of_scale         text549      04C3
__end_of_sprintf       text549      0331
__npowers_             strings      0806
__pbssBANK1            bssBANK1     00CC
__pcstackBANK0         cstackBANK0  0020
__pcstackBANK1         cstackBANK1  00A0
__pcstackCOMMON        cstackCOMMON 0070
__pmaintext            maintext     0E3C
__powers_              strings      082D
__pstrings             strings      0800
__ptext549             text549      000E
__ptext550             text550      0A89
__ptext551             text550      0A9B
__ptext552             text550      0A90
__ptext553             text553      0C12
__ptext554             text549      0331
__ptext555             text555      0CEA
__ptext556             text550      0AAA
__ptext557             text557      0A29
__ptext558             text558      0A0C
__ptext559             text549      0545
__ptext560             text553      0C28
__ptext561             text561      0A49
__ptext562             text550      0ABC
__ptext563             text549      0508
__ptext564             text549      07B0
__ptext565             text549      0600
__ptext566             text549      07F8
__ptext567             text549      0687
__ptext568             text549      04C3
__ptext569             text549      062C
__ptext570             text549      05C2
__ptext571             text555      0E0A
__ptext572             text555      0DEF
__ptext573             text549      06C5
__ptext574             text549      05B4
__ptext575             text575      0B50
__ptext576             text576      0AD8
__ptext577             text561      0A83
__ptext578             text578      09FC
__ptext579             text550      0ACD
__ptext580             text580      0000
__size_of___awdiv      (abs)        0000
__size_of___awmod      (abs)        0000
__size_of___awtoft     (abs)        0000
__size_of___bmul       (abs)        0000
__size_of___ftadd      (abs)        0000
__size_of___ftge       (abs)        0000
__size_of___ftmul      (abs)        0000
__size_of___ftneg      (abs)        0000
__size_of___ftpack     (abs)        0000
__size_of___ftsub      (abs)        0000
__size_of___fttol      (abs)        0000
__size_of___lbdiv      (abs)        0000
__size_of___lbmod      (abs)        0000
__size_of___lldiv      (abs)        0000
__size_of___llmod      (abs)        0000
__size_of___lltoft     (abs)        0000
__size_of___wmul       (abs)        0000
__size_of__div_to_l_   (abs)        0000
__size_of__tdiv_to_l_  (abs)        0000
__size_of_fround       (abs)        0000
__size_of_getch        (abs)        0000
__size_of_gets_Serial  (abs)        0000
__size_of_lcd_clear    (abs)        0000
__size_of_lcd_goto     (abs)        0000
__size_of_lcd_puts     (abs)        0000
__size_of_lcd_write    (abs)        0000
__size_of_main         (abs)        0000
__size_of_msecbase     (abs)        0000
__size_of_pause        (abs)        0000
__size_of_putch        (abs)        0000
__size_of_scale        (abs)        0000
__size_of_sprintf      (abs)        0000
__tdiv_to_l_           text576      0AD8
__tdiv_to_l_@cntr      cstackBANK0  0024
__tdiv_to_l_@exp1      cstackBANK0  0025
__tdiv_to_l_@f1        cstackCOMMON 0070
__tdiv_to_l_@f2        cstackCOMMON 0073
__tdiv_to_l_@quot      cstackBANK0  0020
_dpowers               strings      0854
_exit                  init         0000
_fround                text555      0CEA
_fround$2835           cstackBANK0  004E
_fround$2836           cstackBANK0  004B
_getch                 text561      0A83
_gets_Serial           text561      0A49
_input                 bssBANK1     00D1
_lcd_clear             text550      0A90
_lcd_goto              text550      0A89
_lcd_puts              text550      0A9B
_lcd_write             text550      0AAA
_main                  maintext     0E3C
_msecbase              text550      0ACD
_nin                   bssBANK1     00CF
_num                   bssBANK1     00CC
_pause                 text550      0ABC
_putch                 text578      09FC
_scale                 text549      0331
_scale$2837            cstackBANK0  0043
_sprintf               text549      000E
_sprintf$1890          cstackBANK1  00A0
btemp                  (abs)        007E
clear_ram              clrtext      0A04
end_of_initialization  cinit        000A
fround@prec            cstackBANK0  0051
gets_Serial@c          cstackCOMMON 0076
gets_Serial@i          cstackCOMMON 0072
gets_Serial@i_1836     cstackCOMMON 0074
gets_Serial@s          cstackCOMMON 0071
intlevel0              functab      0000
intlevel1              functab      0000
intlevel2              functab      0000
intlevel3              functab      0000
intlevel4              functab      0000
intlevel5              functab      0000
l1058                                   
l1064                                   
l1067                                   
l1070                                   
l1076                                   
l1082                                   
l1105                                   
l1111                                   
l1202                                   
l2192                                   
l2198                                   
l2228                                   
l2234                                   
l2278                                   
l2332                                   
l2345                                   
l2355                                   
l2359                                   
l2374                                   
l2413                                   
l2435                                   
l2443                                   
l2486                                   
l4645                                   
l4647                                   
l4651                                   
l4657                                   
l4665                                   
l4667                                   
l4669                                   
l4671                                   
l4673                                   
l4677                                   
l4681                                   
l4685                                   
l4693                                   
l4705                                   
l4715                                   
l4717                                   
l4719                                   
l4721                                   
l4725                                   
l4729                                   
l4731                                   
l4739                                   
l4751                                   
l4759                                   
l4761                                   
l4767                                   
l4775                                   
l4777                                   
l4783                                   
l4785                                   
l4787                                   
l4793                                   
l4797                                   
l4801                                   
l4807                                   
l4809                                   
l4813                                   
l4815                                   
l4821                                   
l4825                                   
l4827                                   
l4847                                   
l4849                                   
l4851                                   
l4853                                   
l4859                                   
l4861                                   
l4863                                   
l4865                                   
l4867                                   
l4875                                   
l4885                                   
l4891                                   
l4893                                   
l4897                                   
l4903                                   
l4907                                   
l4917                                   
l4921                                   
l4925                                   
l4929                                   
l4935                                   
l4949                                   
l4955                                   
l4963                                   
l4973                                   
l4975                                   
l4983                                   
l4985                                   
l4995                                   
l4999                                   
l5003                                   
l5009                                   
l5011                                   
l5015                                   
l5035                                   
l5039                                   
l5049                                   
l5053                                   
l5061                                   
l5063                                   
l5073                                   
l5079                                   
l5081                                   
l5083                                   
l5085                                   
l5087                                   
l5097                                   
l5103                                   
l5109                                   
l5111                                   
l5115                                   
l5127                                   
l5137                                   
l5143                                   
l5147                                   
l5149                                   
l5153                                   
l5155                                   
l5161                                   
l5175                                   
l5177                                   
l5179                                   
l5181                                   
l5183                                   
l5185                                   
l5187                                   
l5189                                   
l5197                                   
l5199                                   
l5201                                   
l5209                                   
l5211                                   
l5213                                   
l5217                                   
l5219                                   
l5223                                   
l5229                                   
l5239                                   
l5241                                   
l5243                                   
l5245                                   
l5247                                   
l5249                                   
l5251                                   
l5253                                   
l5257                                   
l5267                                   
l5275                                   
l5279                                   
l5315                                   
l5317                                   
l5321                                   
l5323                                   
l5325                                   
l5329                                   
l5333                                   
l5335                                   
l5337                                   
l5355                                   
l5357                                   
l5359                                   
l5363                                   
l5367                                   
l5371                                   
l5373                                   
l5375                                   
l5377                                   
l5379                                   
l5381                                   
l5387                                   
l5389                                   
l5401                                   
l5419                                   
l5421                                   
l5423                                   
l5427                                   
l5441                                   
l5457                                   
l5459                                   
l5469                                   
l5471                                   
l5477                                   
l5479                                   
l5485                                   
l5487                                   
l5503                                   
l5505                                   
l5507                                   
l5509                                   
l5511                                   
l5513                                   
l5515                                   
l5517                                   
l5519                                   
l5521                                   
l5523                                   
l5525                                   
l5527                                   
l5529                                   
l5531                                   
l5533                                   
l5535                                   
l5537                                   
l5539                                   
l5541                                   
l5543                                   
l5545                                   
l5547                                   
l5549                                   
l5551                                   
l5553                                   
l5555                                   
l5557                                   
l5559                                   
l5561                                   
l5563                                   
l5565                                   
l5567                                   
l5569                                   
l5571                                   
l5579                                   
l5581                                   
l5585                                   
l5593                                   
l5595                                   
l5599                                   
l5601                                   
l5603                                   
l5607                                   
l5609                                   
l5613                                   
l5615                                   
l5617                                   
l5619                                   
l5621                                   
l5629                                   
l5631                                   
l5635                                   
l5637                                   
l5645                                   
l5647                                   
l5651                                   
l5653                                   
l5655                                   
l5657                                   
l5659                                   
lcd_goto@pos           cstackCOMMON 0075
lcd_puts@s             cstackCOMMON 0075
lcd_write@c            cstackCOMMON 0074
main@buffer            cstackBANK1  00B7
main@i                 cstackBANK1  00C6
main@i_1825            cstackBANK1  00C8
main@x                 cstackBANK1  00CA
main@x_1829            cstackBANK1  00CB
pause@msvalue          cstackCOMMON 0070
pause@x                cstackCOMMON 0072
putch@dato             cstackCOMMON 0070
reset_vec              reset_vec    0000
scale@scl              cstackBANK0  0046
sprintf@_val           cstackBANK1  00A9
sprintf@ap             cstackBANK1  00A4
sprintf@c              cstackBANK1  00B6
sprintf@exp            cstackBANK1  00B1
sprintf@f              cstackBANK0  0052
sprintf@flag           cstackBANK1  00A5
sprintf@fval           cstackBANK1  00B3
sprintf@integ          cstackBANK1  00AD
sprintf@prec           cstackBANK1  00A7
sprintf@sp             cstackBANK1  00B0
start                  init         0000
start_initialization   cinit        0003
u1870                                   
u2670                                   
wtemp0                 (abs)        007E
