HI-TECH Software C Compiler 

Linker command line:

--edf=C:\Program Files (x86)\HI-TECH Software\PICC\9.82\dat\en_msgs.txt -cs \
  -h+C_PuertoSerial_usar.sym -z -Q16F887 -ol.obj -MC_PuertoSerial_usar.map \
  -E1 -ACONST=00h-0FFhx32 -ACODE=00h-07FFhx4 -ASTRCODE=00h-01FFFh \
  -AENTRY=00h-0FFhx32 -ASTRING=00h-0FFhx32 -ABANK0=020h-06Fh \
  -ABANK1=0A0h-0EFh -ABANK2=0110h-016Fh -ABANK3=0190h-01EFh \
  -ARAM=020h-06Fh,0A0h-0EFh,0110h-016Fh,0190h-01EFh \
  -AABS1=020h-07Fh,0A0h-0EFh,0110h-016Fh,0190h-01EFh -ACOMMON=070h-07Fh \
  -ASFR0=00h-01Fh -ASFR1=080h-09Fh -ASFR2=0100h-010Fh -ASFR3=0180h-018Fh \
  -preset_vec=00h,intentry,init,end_init -ppowerup=CODE -pfunctab=CODE \
  -ACONFIG=02007h-02008h -pconfig=CONFIG -DCONFIG=2 -AIDLOC=02000h-02003h \
  -pidloc=IDLOC -DIDLOC=2 -AEEDATA=00h-0FFh/02100h -peeprom_data=EEDATA \
  -DEEDATA=2 -DCODE=2 -DSTRCODE=2 -DSTRING=2 -DCONST=2 -DENTRY=2 -k \
  startup.obj C_PuertoSerial_usar.obj 

Object code version is 3.10

Machine type is 16F887



                Name                               Link     Load   Length Selector   Space Scale
startup.obj     end_init                              0        0        3        0       0
C_PuertoSerial_usar.obj
                config                             2007     2007        2     400E       0
                text358                             352      352        8      6A4       0
                text350                             36D      36D       40      6DA       0
                text349                             55A      55A       EF      AB4       0
                text348                             407      407       81      80E       0
                text346                             488      488       D2      910       0
                text342                             3AD      3AD       5A      75A       0
                maintext                            649      649      1B7      C92       0
                cstackBANK0                          20       20       27       20       1
                cstackCOMMON                         70       70        E       70       1
                clrtext                             35A      35A        8      6B4       0
                bssBANK0                             47       47       13       20       1
                cinit                               362      362        B      6C4       0
                strings                               3        3       2B        6       0

TOTAL           Name                               Link     Load   Length     Space
        CLASS   CONST          

        CLASS   CODE           
                end_init                              0        0        3         0
                text358                             352      352        8         0
                text350                             36D      36D       40         0
                text349                             55A      55A       EF         0
                text348                             407      407       81         0
                text346                             488      488       D2         0
                text342                             3AD      3AD       5A         0
                maintext                            649      649      1B7         0
                clrtext                             35A      35A        8         0
                cinit                               362      362        B         0

        CLASS   STRCODE        

        CLASS   ENTRY          

        CLASS   STRING         
                strings                               3        3       2B         0

        CLASS   BANK0          
                cstackBANK0                          20       20       27         1
                bssBANK0                             47       47       13         1

        CLASS   BANK1          

        CLASS   BANK2          

        CLASS   BANK3          

        CLASS   RAM            

        CLASS   ABS1           
                abs_s1                               7E       7E        2         1

        CLASS   COMMON         
                cstackCOMMON                         70       70        E         1

        CLASS   SFR0           

        CLASS   SFR1           

        CLASS   SFR2           

        CLASS   SFR3           

        CLASS   CONFIG         
                config                             2007     2007        2         0

        CLASS   IDLOC          

        CLASS   EEDATA         



SEGMENTS        Name                           Load    Length   Top    Selector   Space  Class     Delta

                reset_vec                      000000  000003  000003         0       0  CODE        2
                strings                        000003  00002B  00002E         6       0  STRING      2
                cstackBANK0                    000020  00003A  00005A        20       1  BANK0       1
                cstackCOMMON                   000070  00000E  00007E        70       1  COMMON      1
                text358                        000352  000008  00035A       6A4       0  CODE        2
                clrtext                        00035A  000008  000362       6B4       0  CODE        2
                cinit                          000362  00000B  00036D       6C4       0  CODE        2
                text350                        00036D  000040  0003AD       6DA       0  CODE        2
                text342                        0003AD  00005A  000407       75A       0  CODE        2
                text348                        000407  000081  000488       80E       0  CODE        2
                text346                        000488  0000D2  00055A       910       0  CODE        2
                text349                        00055A  0000EF  000649       AB4       0  CODE        2
                maintext                       000649  0001B7  000800       C92       0  CODE        2
                config                         002007  000002  002009      400E       0  CONFIG      2


UNUSED ADDRESS RANGES

        Name                Unused          Largest block    Delta
        BANK0            005A-006F             16           1
        BANK1            00A0-00EF             50           1
        BANK2            0110-016F             60           1
        BANK3            0190-01EF             60           1
        CODE             002E-0351            324           2
                         0800-1FFF            800
        CONST            002E-0351            100           2
                         0800-1FFF            100
        EEDATA           2100-21FF            100           2
        ENTRY            002E-0351            100           2
                         0800-1FFF            100
        IDLOC            2000-2003              4           2
        RAM              005A-006F             16           1
                         00A0-00EF             50
                         0110-016F             60
                         0190-01EF             60
        SFR0             0000-001F             20           1
        SFR1             0080-009F             20           1
        SFR2             0100-010F             10           1
        SFR3             0180-018F             10           1
        STRCODE          002E-0351            324           2
                         0800-1FFF           1800
        STRING           002E-0351            100           2
                         0800-1FFF            100

                                  Symbol Table

??___awtoft            cstackCOMMON 007B
??___ftmul             cstackBANK0  0026
??___ftpack            cstackCOMMON 0075
??___lwdiv             cstackCOMMON 0074
??___lwmod             cstackCOMMON 007B
??___wmul              cstackCOMMON 0074
??_atoi                cstackCOMMON 0078
??_getch               cstackCOMMON 0070
??_gets_Serial         cstackCOMMON 0070
??_isdigit             cstackCOMMON 0070
??_lcd_clear           cstackCOMMON 0075
??_lcd_goto            cstackCOMMON 0075
??_lcd_puts            cstackCOMMON 0077
??_lcd_write           cstackCOMMON 0074
??_main                cstackBANK0  002F
??_msecbase            cstackCOMMON 0070
??_pause               cstackCOMMON 0072
??_putch               cstackCOMMON 0070
??_sprintf             cstackCOMMON 007C
?___awtoft             cstackCOMMON 0078
?___ftmul              cstackBANK0  0020
?___ftpack             cstackCOMMON 0070
?___lwdiv              cstackCOMMON 0070
?___lwmod              cstackCOMMON 0077
?___wmul               cstackCOMMON 0070
?_atoi                 cstackCOMMON 0076
?_getch                cstackCOMMON 0070
?_gets_Serial          cstackCOMMON 0070
?_isdigit              cstackCOMMON 0070
?_lcd_clear            cstackCOMMON 0070
?_lcd_goto             cstackCOMMON 0070
?_lcd_puts             cstackCOMMON 0075
?_lcd_write            cstackCOMMON 0070
?_main                 cstackCOMMON 0070
?_msecbase             cstackCOMMON 0070
?_pause                cstackCOMMON 0070
?_putch                cstackCOMMON 0070
?_sprintf              cstackBANK0  0020
_ADCON0                (abs)        001F
_ADCON1                (abs)        009F
_ADRESH                (abs)        001E
_ADRESL                (abs)        009E
_ANSEL                 (abs)        0188
_ANSELH                (abs)        0189
_BAUDCTL               (abs)        0187
_CCP1CON               (abs)        0017
_CCP2CON               (abs)        001D
_CCPR1L                (abs)        0015
_GO_DONE               (abs)        00F9
_OPTION_REG            (abs)        0081
_OSCCON                (abs)        008F
_PORTA                 (abs)        0005
_PORTB                 (abs)        0006
_PORTD                 (abs)        0008
_PR2                   (abs)        0092
_RA6                   (abs)        002E
_RA7                   (abs)        002F
_RCIF                  (abs)        0065
_RCREG                 (abs)        001A
_RCSTA                 (abs)        0018
_RE1                   (abs)        0049
_SPBRG                 (abs)        0099
_T0IF                  (abs)        005A
_T2CKPS0               (abs)        0090
_T2CKPS1               (abs)        0091
_TMR0                  (abs)        0001
_TMR2ON                (abs)        0092
_TRISA                 (abs)        0085
_TRISB                 (abs)        0086
_TRISC6                (abs)        043E
_TRISC7                (abs)        043F
_TRISD                 (abs)        0088
_TRISE                 (abs)        0089
_TXIF                  (abs)        0064
_TXREG                 (abs)        0019
_TXSTA                 (abs)        0098
__Habs1                abs1         0000
__Hbank0               bank0        0000
__Hbank1               bank1        0000
__Hbank2               bank2        0000
__Hbank3               bank3        0000
__HbssBANK0            bssBANK0     0000
__Hcinit               cinit        0000
__Hclrtext             clrtext      0000
__Hcode                code         0000
__Hcommon              common       0000
__Hconfig              config       2009
__HcstackBANK0         cstackBANK0  0000
__HcstackCOMMON        cstackCOMMON 0000
__Heeprom_data         eeprom_data  0000
__Hend_init            end_init     0003
__Hfunctab             functab      0000
__Hidloc               idloc        0000
__Hinit                init         0000
__Hintentry            intentry     0000
__Hmaintext            maintext     0000
__Hpa_nodes            pa_nodes     0000
__Hpowerup             powerup      0000
__Hram                 ram          0000
__Hreset_vec           reset_vec    0000
__Hsfr0                sfr0         0000
__Hsfr1                sfr1         0000
__Hsfr2                sfr2         0000
__Hsfr3                sfr3         0000
__Hstrings             strings      0000
__Htext                text         0000
__Labs1                abs1         0000
__Lbank0               bank0        0000
__Lbank1               bank1        0000
__Lbank2               bank2        0000
__Lbank3               bank3        0000
__LbssBANK0            bssBANK0     0000
__Lcinit               cinit        0000
__Lclrtext             clrtext      0000
__Lcode                code         0000
__Lcommon              common       0000
__Lconfig              config       2007
__LcstackBANK0         cstackBANK0  0000
__LcstackCOMMON        cstackCOMMON 0000
__Leeprom_data         eeprom_data  0000
__Lend_init            end_init     0000
__Lfunctab             functab      0000
__Lidloc               idloc        0000
__Linit                init         0000
__Lintentry            intentry     0000
__Lmaintext            maintext     0000
__Lpa_nodes            pa_nodes     0000
__Lpowerup             powerup      0000
__Lram                 ram          0000
__Lreset_vec           reset_vec    0000
__Lsfr0                sfr0         0000
__Lsfr1                sfr1         0000
__Lsfr2                sfr2         0000
__Lsfr3                sfr3         0000
__Lstrings             strings      0000
__Ltext                text         0000
__S0                   (abs)        2009
__S1                   (abs)        007E
__S2                   (abs)        0000
___awtoft              text346      0488
___awtoft@c            cstackCOMMON 0078
___awtoft@sign         cstackCOMMON 007B
___ftmul               text346      04A3
___ftmul@cntr          cstackBANK0  002D
___ftmul@exp           cstackBANK0  0029
___ftmul@f1            cstackBANK0  0020
___ftmul@f2            cstackBANK0  0023
___ftmul@f3_as_product cstackBANK0  002A
___ftmul@sign          cstackBANK0  002E
___ftpack              text346      0512
___ftpack@arg          cstackCOMMON 0070
___ftpack@exp          cstackCOMMON 0073
___ftpack@sign         cstackCOMMON 0074
___lwdiv               text349      05F5
___lwdiv@counter       cstackCOMMON 0076
___lwdiv@dividend      cstackCOMMON 0072
___lwdiv@divisor       cstackCOMMON 0070
___lwdiv@quotient      cstackCOMMON 0074
___lwmod               text349      061F
___lwmod@counter       cstackCOMMON 007B
___lwmod@dividend      cstackCOMMON 0079
___lwmod@divisor       cstackCOMMON 0077
___wmul                text348      046F
___wmul@multiplicand   cstackCOMMON 0072
___wmul@multiplier     cstackCOMMON 0070
___wmul@product        cstackCOMMON 0074
__end_of___awtoft      text346      04A3
__end_of___ftmul       text346      0512
__end_of___ftpack      text346      0550
__end_of___lwdiv       text349      061F
__end_of___lwmod       text349      0643
__end_of___wmul        text348      0488
__end_of_atoi          text348      0461
__end_of_getch         text350      03AD
__end_of_gets_Serial   text350      03A7
__end_of_isdigit       text348      046F
__end_of_lcd_clear     text342      03BC
__end_of_lcd_goto      text342      03B1
__end_of_lcd_puts      text342      03D9
__end_of_lcd_write     text342      03EB
__end_of_main          maintext     0800
__end_of_msecbase      text342      0407
__end_of_pause         text342      03FC
__end_of_putch         text358      035A
__end_of_sprintf       text349      05F5
__pbssBANK0            bssBANK0     0047
__pcstackBANK0         cstackBANK0  0020
__pcstackCOMMON        cstackCOMMON 0070
__pmaintext            maintext     0649
__pstrings             strings      0003
__ptext342             text342      03AD
__ptext343             text342      03BC
__ptext344             text342      03B1
__ptext345             text342      03D9
__ptext346             text346      0488
__ptext347             text346      04A3
__ptext348             text348      0407
__ptext349             text349      055A
__ptext350             text350      036D
__ptext351             text342      03EB
__ptext352             text346      0512
__ptext353             text349      061F
__ptext354             text349      05F5
__ptext355             text348      046F
__ptext356             text348      0461
__ptext357             text350      03A7
__ptext358             text358      0352
__ptext359             text342      03FC
__ptext360             text360      0000
__size_of___awtoft     (abs)        0000
__size_of___ftmul      (abs)        0000
__size_of___ftpack     (abs)        0000
__size_of___lwdiv      (abs)        0000
__size_of___lwmod      (abs)        0000
__size_of___wmul       (abs)        0000
__size_of_atoi         (abs)        0000
__size_of_getch        (abs)        0000
__size_of_gets_Serial  (abs)        0000
__size_of_isdigit      (abs)        0000
__size_of_lcd_clear    (abs)        0000
__size_of_lcd_goto     (abs)        0000
__size_of_lcd_puts     (abs)        0000
__size_of_lcd_write    (abs)        0000
__size_of_main         (abs)        0000
__size_of_msecbase     (abs)        0000
__size_of_pause        (abs)        0000
__size_of_putch        (abs)        0000
__size_of_sprintf      (abs)        0000
_atoi                  text348      0407
_dpowers               strings      0013
_exit                  init         0000
_getch                 text350      03A7
_gets_Serial           text350      036D
_input                 bssBANK0     0049
_isdigit               text348      0461
_isdigit$2389          cstackCOMMON 0070
_lcd_clear             text342      03B1
_lcd_goto              text342      03AD
_lcd_puts              text342      03BC
_lcd_write             text342      03D9
_main                  maintext     0649
_msecbase              text342      03FC
_nin                   bssBANK0     0047
_pause                 text342      03EB
_putch                 text358      0352
_sprintf               text349      055A
atoi@a                 cstackCOMMON 007B
atoi@s                 cstackCOMMON 007D
atoi@sign              cstackCOMMON 007A
btemp                  (abs)        007E
clear_ram              clrtext      035A
end_of_initialization  cinit        0369
gets_Serial@c          cstackCOMMON 0076
gets_Serial@i          cstackCOMMON 0072
gets_Serial@i_1843     cstackCOMMON 0074
gets_Serial@s          cstackCOMMON 0071
intlevel0              functab      0000
intlevel1              functab      0000
intlevel2              functab      0000
intlevel3              functab      0000
intlevel4              functab      0000
intlevel5              functab      0000
isdigit@c              cstackCOMMON 0071
l1060                                   
l1066                                   
l1069                                   
l1072                                   
l1078                                   
l1084                                   
l1107                                   
l1113                                   
l1151                                   
l2151                                   
l2163                                   
l2173                                   
l2183                                   
l2297                                   
l3110                                   
l3112                                   
l3116                                   
l3122                                   
l3124                                   
l3134                                   
l3142                                   
l3144                                   
l3150                                   
l3152                                   
l3162                                   
l3166                                   
l3170                                   
l3176                                   
l3190                                   
l3196                                   
l3198                                   
l3218                                   
l3220                                   
l3222                                   
l3228                                   
l3232                                   
l3240                                   
l3242                                   
l3252                                   
l3258                                   
l3260                                   
l3262                                   
l3268                                   
l3274                                   
l3278                                   
l3280                                   
l3284                                   
l3296                                   
l3302                                   
l3308                                   
l3310                                   
l3320                                   
l3330                                   
l3346                                   
l3354                                   
l3368                                   
l3370                                   
l3372                                   
l3374                                   
l3376                                   
l3378                                   
l3380                                   
l3382                                   
l3390                                   
l3392                                   
l3394                                   
l3402                                   
l3404                                   
l3406                                   
l3410                                   
l3412                                   
l3416                                   
l3422                                   
l3424                                   
l3426                                   
l3428                                   
l3430                                   
l3432                                   
l3434                                   
l3436                                   
l3438                                   
l3440                                   
l3444                                   
l3448                                   
l3450                                   
l3452                                   
l3454                                   
l3456                                   
l3458                                   
l3460                                   
l3462                                   
l3464                                   
l3466                                   
l3468                                   
l3470                                   
l3472                                   
l3474                                   
l3476                                   
l3478                                   
l3480                                   
l3482                                   
l3484                                   
l3486                                   
l3488                                   
l3490                                   
l3492                                   
l3494                                   
l3496                                   
l3498                                   
l3500                                   
l3502                                   
l3504                                   
l3506                                   
l3508                                   
l3510                                   
l3512                                   
l3514                                   
l3516                                   
l3518                                   
l3520                                   
l3528                                   
l3530                                   
l3534                                   
l3542                                   
l3544                                   
l3548                                   
l3550                                   
l3552                                   
l3556                                   
l3558                                   
l3562                                   
l3564                                   
l3566                                   
l3568                                   
l3570                                   
l3578                                   
l3580                                   
l3584                                   
l3586                                   
l3594                                   
l3596                                   
l3600                                   
l3602                                   
l3604                                   
l3606                                   
l3608                                   
l3610                                   
l3612                                   
l3614                                   
lcd_goto@pos           cstackCOMMON 0075
lcd_puts@s             cstackCOMMON 0075
lcd_write@c            cstackCOMMON 0074
main@buffer            cstackBANK0  0030
main@i                 cstackBANK0  0041
main@i_1830            cstackBANK0  0043
main@val               cstackBANK0  003F
main@x                 cstackBANK0  0045
main@x_1835            cstackBANK0  0046
pause@msvalue          cstackCOMMON 0070
pause@x                cstackCOMMON 0072
putch@dato             cstackCOMMON 0070
reset_vec              reset_vec    0000
sprintf@_val           cstackBANK0  0026
sprintf@ap             cstackBANK0  0023
sprintf@c              cstackBANK0  002B
sprintf@f              cstackBANK0  0020
sprintf@flag           cstackBANK0  0024
sprintf@prec           cstackBANK0  0025
sprintf@sp             cstackBANK0  002A
start                  init         0000
start_initialization   cinit        0362
wtemp0                 (abs)        007E
