opt subtitle "HI-TECH Software Omniscient Code Generator (PRO mode) build 9453"

opt pagewidth 120

	opt pm

	processor	16F887
clrc	macro
	bcf	3,0
	endm
clrz	macro
	bcf	3,2
	endm
setc	macro
	bsf	3,0
	endm
setz	macro
	bsf	3,2
	endm
skipc	macro
	btfss	3,0
	endm
skipz	macro
	btfss	3,2
	endm
skipnc	macro
	btfsc	3,0
	endm
skipnz	macro
	btfsc	3,2
	endm
indf	equ	0
indf0	equ	0
pc	equ	2
pcl	equ	2
status	equ	3
fsr	equ	4
fsr0	equ	4
c	equ	1
z	equ	0
pclath	equ	10
# 8 "C:\Users\petir\Documents\PIC_PROG\C_PuertoSerial\C_PuertoSerial_usart.c"
	psect config,class=CONFIG,delta=2 ;#
# 8 "C:\Users\petir\Documents\PIC_PROG\C_PuertoSerial\C_PuertoSerial_usart.c"
	dw 0xFFFC & 0xFFF7 & 0xFFFF & 0xFFDF & 0xFFFF & 0xFFFF & 0xFCFF & 0xFBFF & 0xF7FF & 0xEFFF & 0xFFFF ;#
# 9 "C:\Users\petir\Documents\PIC_PROG\C_PuertoSerial\C_PuertoSerial_usart.c"
	psect config,class=CONFIG,delta=2 ;#
# 9 "C:\Users\petir\Documents\PIC_PROG\C_PuertoSerial\C_PuertoSerial_usart.c"
	dw 0xFFFF & 0xFFFF ;#
	FNCALL	_main,_pause
	FNCALL	_main,_lcd_write
	FNCALL	_main,_lcd_clear
	FNCALL	_main,_putch
	FNCALL	_main,___awtoft
	FNCALL	_main,___ftmul
	FNCALL	_main,_sprintf
	FNCALL	_main,_getch
	FNCALL	_main,_lcd_goto
	FNCALL	_main,_lcd_putch
	FNCALL	_sprintf,___ftge
	FNCALL	_sprintf,___ftneg
	FNCALL	_sprintf,___wmul
	FNCALL	_sprintf,___awdiv
	FNCALL	_sprintf,_scale
	FNCALL	_sprintf,___ftmul
	FNCALL	_sprintf,_fround
	FNCALL	_sprintf,___ftadd
	FNCALL	_sprintf,___fttol
	FNCALL	_sprintf,__div_to_l_
	FNCALL	_sprintf,__tdiv_to_l_
	FNCALL	_sprintf,___lltoft
	FNCALL	_sprintf,___ftsub
	FNCALL	_sprintf,___lldiv
	FNCALL	_sprintf,___llmod
	FNCALL	_lcd_goto,_lcd_write
	FNCALL	_lcd_putch,_lcd_write
	FNCALL	_lcd_clear,_lcd_write
	FNCALL	_lcd_clear,_pause
	FNCALL	___ftsub,___ftadd
	FNCALL	_scale,___awmod
	FNCALL	_scale,___awdiv
	FNCALL	_scale,___ftmul
	FNCALL	_scale,___bmul
	FNCALL	_fround,___lbmod
	FNCALL	_fround,___bmul
	FNCALL	_fround,___lbdiv
	FNCALL	_fround,___ftmul
	FNCALL	_lcd_write,_pause
	FNCALL	___lltoft,___ftpack
	FNCALL	___awtoft,___ftpack
	FNCALL	___ftmul,___ftpack
	FNCALL	___ftadd,___ftpack
	FNCALL	_pause,_msecbase
	FNROOT	_main
	global	main@F1732
psect	idataBANK1,class=CODE,space=0,delta=2
global __pidataBANK1
__pidataBANK1:
	file	"C:\Users\petir\Documents\PIC_PROG\C_PuertoSerial\C_PuertoSerial_usart.c"
	line	156

;initializer for main@F1732
	retlw	048h
	retlw	06Fh
	retlw	06Ch
	retlw	061h
	retlw	020h
	retlw	04Dh
	retlw	075h
	retlw	06Eh
	retlw	064h
	retlw	06Fh
	retlw	0
	global	__npowers_
psect	strings,class=STRING,delta=2
global __pstrings
__pstrings:
;	global	stringdir,stringtab,__stringbase
stringtab:
;	String table - string pointers are 1 byte each
stringcode:stringdir:
movlw high(stringdir)
movwf pclath
movf fsr,w
incf fsr
	addwf pc
__stringbase:
	retlw	0
psect	strings
	file	"C:\Program Files (x86)\HI-TECH Software\PICC\9.82\sources\powers.c"
	line	39
__npowers_:
	retlw	0x0
	retlw	0x80
	retlw	0x3f

	retlw	0xcd
	retlw	0xcc
	retlw	0x3d

	retlw	0xd7
	retlw	0x23
	retlw	0x3c

	retlw	0x12
	retlw	0x83
	retlw	0x3a

	retlw	0xb7
	retlw	0xd1
	retlw	0x38

	retlw	0xc6
	retlw	0x27
	retlw	0x37

	retlw	0x38
	retlw	0x86
	retlw	0x35

	retlw	0xc0
	retlw	0xd6
	retlw	0x33

	retlw	0xcc
	retlw	0x2b
	retlw	0x32

	retlw	0x70
	retlw	0x89
	retlw	0x30

	retlw	0xe7
	retlw	0xdb
	retlw	0x2e

	retlw	0xe5
	retlw	0x3c
	retlw	0x1e

	retlw	0x42
	retlw	0xa2
	retlw	0xd

	global	__powers_
psect	strings
	file	"C:\Program Files (x86)\HI-TECH Software\PICC\9.82\sources\powers.c"
	line	7
__powers_:
	retlw	0x0
	retlw	0x80
	retlw	0x3f

	retlw	0x0
	retlw	0x20
	retlw	0x41

	retlw	0x0
	retlw	0xc8
	retlw	0x42

	retlw	0x0
	retlw	0x7a
	retlw	0x44

	retlw	0x40
	retlw	0x1c
	retlw	0x46

	retlw	0x50
	retlw	0xc3
	retlw	0x47

	retlw	0x24
	retlw	0x74
	retlw	0x49

	retlw	0x97
	retlw	0x18
	retlw	0x4b

	retlw	0xbc
	retlw	0xbe
	retlw	0x4c

	retlw	0x6b
	retlw	0x6e
	retlw	0x4e

	retlw	0x3
	retlw	0x15
	retlw	0x50

	retlw	0x79
	retlw	0xad
	retlw	0x60

	retlw	0xf3
	retlw	0x49
	retlw	0x71

	global	_dpowers
psect	strings
	file	"C:\Program Files (x86)\HI-TECH Software\PICC\9.82\lib\doprnt.c"
	line	350
_dpowers:
	retlw	01h
	retlw	0
	retlw	0
	retlw	0

	retlw	0Ah
	retlw	0
	retlw	0
	retlw	0

	retlw	064h
	retlw	0
	retlw	0
	retlw	0

	retlw	0E8h
	retlw	03h
	retlw	0
	retlw	0

	retlw	010h
	retlw	027h
	retlw	0
	retlw	0

	retlw	0A0h
	retlw	086h
	retlw	01h
	retlw	0

	retlw	040h
	retlw	042h
	retlw	0Fh
	retlw	0

	retlw	080h
	retlw	096h
	retlw	098h
	retlw	0

	retlw	0
	retlw	0E1h
	retlw	0F5h
	retlw	05h

	retlw	0
	retlw	0CAh
	retlw	09Ah
	retlw	03Bh

	global	__npowers_
	global	__powers_
	global	_dpowers
	global	_num
	global	_nin
	global	_ADCON0
_ADCON0	set	31
	global	_ADRESH
_ADRESH	set	30
	global	_CCP1CON
_CCP1CON	set	23
	global	_CCP2CON
_CCP2CON	set	29
	global	_CCPR1L
_CCPR1L	set	21
	global	_INTCON
_INTCON	set	11
	global	_PORTD
_PORTD	set	8
	global	_RCREG
_RCREG	set	26
	global	_RCSTA
_RCSTA	set	24
	global	_TMR0
_TMR0	set	1
	global	_TXREG
_TXREG	set	25
	global	_GO_DONE
_GO_DONE	set	249
	global	_RA6
_RA6	set	46
	global	_RA7
_RA7	set	47
	global	_RCIF
_RCIF	set	101
	global	_RE1
_RE1	set	73
	global	_T0IF
_T0IF	set	90
	global	_T2CKPS0
_T2CKPS0	set	144
	global	_T2CKPS1
_T2CKPS1	set	145
	global	_TMR2ON
_TMR2ON	set	146
	global	_TXIF
_TXIF	set	100
	global	_ADCON1
_ADCON1	set	159
	global	_ADRESL
_ADRESL	set	158
	global	_OPTION_REG
_OPTION_REG	set	129
	global	_OSCCON
_OSCCON	set	143
	global	_PR2
_PR2	set	146
	global	_SPBRG
_SPBRG	set	153
	global	_TRISA
_TRISA	set	133
	global	_TRISB
_TRISB	set	134
	global	_TRISD
_TRISD	set	136
	global	_TRISE
_TRISE	set	137
	global	_TXSTA
_TXSTA	set	152
	global	_TRISC6
_TRISC6	set	1086
	global	_TRISC7
_TRISC7	set	1087
	global	_ANSEL
_ANSEL	set	392
	global	_ANSELH
_ANSELH	set	393
	global	_BAUDCTL
_BAUDCTL	set	391
	global	_PORTA
_PORTA	set	5
	
STR_1:	
	retlw	86	;'V'
	retlw	97	;'a'
	retlw	108	;'l'
	retlw	111	;'o'
	retlw	114	;'r'
	retlw	32	;' '
	retlw	101	;'e'
	retlw	115	;'s'
	retlw	58	;':'
	retlw	32	;' '
	retlw	37	;'%'
	retlw	102	;'f'
	retlw	0
psect	strings
	file	"C_PuertoSerial_usar.as"
	line	#
psect cinit,class=CODE,delta=2
global start_initialization
start_initialization:

psect	bssBANK1,class=BANK1,space=1
global __pbssBANK1
__pbssBANK1:
_num:
       ds      3

_nin:
       ds      2

psect	dataBANK1,class=BANK1,space=1
global __pdataBANK1
__pdataBANK1:
	file	"C:\Users\petir\Documents\PIC_PROG\C_PuertoSerial\C_PuertoSerial_usart.c"
	line	156
main@F1732:
       ds      11

; Clear objects allocated to BANK1
psect cinit,class=CODE,delta=2
	bsf	status, 5	;RP0=1, select bank1
	clrf	((__pbssBANK1)+0)&07Fh
	clrf	((__pbssBANK1)+1)&07Fh
	clrf	((__pbssBANK1)+2)&07Fh
	clrf	((__pbssBANK1)+3)&07Fh
	clrf	((__pbssBANK1)+4)&07Fh
; Initialize objects allocated to BANK1
	global __pidataBANK1
psect cinit,class=CODE,delta=2
	fcall	__pidataBANK1+0		;fetch initializer
	movwf	__pdataBANK1+0&07fh		
	fcall	__pidataBANK1+1		;fetch initializer
	movwf	__pdataBANK1+1&07fh		
	fcall	__pidataBANK1+2		;fetch initializer
	movwf	__pdataBANK1+2&07fh		
	fcall	__pidataBANK1+3		;fetch initializer
	movwf	__pdataBANK1+3&07fh		
	fcall	__pidataBANK1+4		;fetch initializer
	movwf	__pdataBANK1+4&07fh		
	fcall	__pidataBANK1+5		;fetch initializer
	movwf	__pdataBANK1+5&07fh		
	fcall	__pidataBANK1+6		;fetch initializer
	movwf	__pdataBANK1+6&07fh		
	fcall	__pidataBANK1+7		;fetch initializer
	movwf	__pdataBANK1+7&07fh		
	fcall	__pidataBANK1+8		;fetch initializer
	movwf	__pdataBANK1+8&07fh		
	fcall	__pidataBANK1+9		;fetch initializer
	movwf	__pdataBANK1+9&07fh		
	fcall	__pidataBANK1+10		;fetch initializer
	movwf	__pdataBANK1+10&07fh		
psect cinit,class=CODE,delta=2
global end_of_initialization

;End of C runtime variable initialization code

end_of_initialization:
clrf status
ljmp _main	;jump to C main() function
psect	cstackBANK1,class=BANK1,space=1
global __pcstackBANK1
__pcstackBANK1:
	global	_sprintf$1888
_sprintf$1888:	; 4 bytes @ 0x0
	ds	4
	global	sprintf@ap
sprintf@ap:	; 1 bytes @ 0x4
	ds	1
	global	sprintf@flag
sprintf@flag:	; 2 bytes @ 0x5
	ds	2
	global	sprintf@prec
sprintf@prec:	; 2 bytes @ 0x7
	ds	2
	global	sprintf@_val
sprintf@_val:	; 4 bytes @ 0x9
	ds	4
	global	sprintf@integ
sprintf@integ:	; 3 bytes @ 0xD
	ds	3
	global	sprintf@sp
sprintf@sp:	; 1 bytes @ 0x10
	ds	1
	global	sprintf@exp
sprintf@exp:	; 2 bytes @ 0x11
	ds	2
	global	sprintf@fval
sprintf@fval:	; 3 bytes @ 0x13
	ds	3
	global	sprintf@c
sprintf@c:	; 1 bytes @ 0x16
	ds	1
psect	cstackCOMMON,class=COMMON,space=1
global __pcstackCOMMON
__pcstackCOMMON:
	global	?_putch
?_putch:	; 0 bytes @ 0x0
	global	??_putch
??_putch:	; 0 bytes @ 0x0
	global	??_getch
??_getch:	; 0 bytes @ 0x0
	global	?_msecbase
?_msecbase:	; 0 bytes @ 0x0
	global	??_msecbase
??_msecbase:	; 0 bytes @ 0x0
	global	?_pause
?_pause:	; 0 bytes @ 0x0
	global	?_lcd_write
?_lcd_write:	; 0 bytes @ 0x0
	global	?_lcd_clear
?_lcd_clear:	; 0 bytes @ 0x0
	global	?_lcd_putch
?_lcd_putch:	; 0 bytes @ 0x0
	global	?_lcd_goto
?_lcd_goto:	; 0 bytes @ 0x0
	global	?_main
?_main:	; 0 bytes @ 0x0
	global	?___ftge
?___ftge:	; 1 bit 
	global	?_getch
?_getch:	; 1 bytes @ 0x0
	global	?___lbmod
?___lbmod:	; 1 bytes @ 0x0
	global	?___wmul
?___wmul:	; 2 bytes @ 0x0
	global	?___awmod
?___awmod:	; 2 bytes @ 0x0
	global	?___ftpack
?___ftpack:	; 3 bytes @ 0x0
	global	?___ftneg
?___ftneg:	; 3 bytes @ 0x0
	global	?__tdiv_to_l_
?__tdiv_to_l_:	; 4 bytes @ 0x0
	global	?__div_to_l_
?__div_to_l_:	; 4 bytes @ 0x0
	global	?___lldiv
?___lldiv:	; 4 bytes @ 0x0
	global	putch@dato
putch@dato:	; 1 bytes @ 0x0
	global	___lbmod@divisor
___lbmod@divisor:	; 1 bytes @ 0x0
	global	pause@msvalue
pause@msvalue:	; 2 bytes @ 0x0
	global	___wmul@multiplier
___wmul@multiplier:	; 2 bytes @ 0x0
	global	___awmod@divisor
___awmod@divisor:	; 2 bytes @ 0x0
	global	___ftneg@f1
___ftneg@f1:	; 3 bytes @ 0x0
	global	___ftge@ff1
___ftge@ff1:	; 3 bytes @ 0x0
	global	__tdiv_to_l_@f1
__tdiv_to_l_@f1:	; 3 bytes @ 0x0
	global	__div_to_l_@f1
__div_to_l_@f1:	; 3 bytes @ 0x0
	global	___ftpack@arg
___ftpack@arg:	; 3 bytes @ 0x0
	global	___lldiv@divisor
___lldiv@divisor:	; 4 bytes @ 0x0
	ds	1
	global	??___lbmod
??___lbmod:	; 0 bytes @ 0x1
	ds	1
	global	??_pause
??_pause:	; 0 bytes @ 0x2
	global	___lbmod@dividend
___lbmod@dividend:	; 1 bytes @ 0x2
	global	pause@x
pause@x:	; 2 bytes @ 0x2
	global	___wmul@multiplicand
___wmul@multiplicand:	; 2 bytes @ 0x2
	global	___awmod@dividend
___awmod@dividend:	; 2 bytes @ 0x2
	ds	1
	global	??___ftneg
??___ftneg:	; 0 bytes @ 0x3
	global	___lbmod@counter
___lbmod@counter:	; 1 bytes @ 0x3
	global	___ftpack@exp
___ftpack@exp:	; 1 bytes @ 0x3
	global	___ftge@ff2
___ftge@ff2:	; 3 bytes @ 0x3
	global	__tdiv_to_l_@f2
__tdiv_to_l_@f2:	; 3 bytes @ 0x3
	global	__div_to_l_@f2
__div_to_l_@f2:	; 3 bytes @ 0x3
	ds	1
	global	??_lcd_write
??_lcd_write:	; 0 bytes @ 0x4
	global	??___wmul
??___wmul:	; 0 bytes @ 0x4
	global	??___awmod
??___awmod:	; 0 bytes @ 0x4
	global	lcd_write@c
lcd_write@c:	; 1 bytes @ 0x4
	global	___lbmod@rem
___lbmod@rem:	; 1 bytes @ 0x4
	global	___awmod@counter
___awmod@counter:	; 1 bytes @ 0x4
	global	___ftpack@sign
___ftpack@sign:	; 1 bytes @ 0x4
	global	___wmul@product
___wmul@product:	; 2 bytes @ 0x4
	global	___lldiv@dividend
___lldiv@dividend:	; 4 bytes @ 0x4
	ds	1
	global	??___ftpack
??___ftpack:	; 0 bytes @ 0x5
	global	??_lcd_clear
??_lcd_clear:	; 0 bytes @ 0x5
	global	??_lcd_putch
??_lcd_putch:	; 0 bytes @ 0x5
	global	??_lcd_goto
??_lcd_goto:	; 0 bytes @ 0x5
	global	?___lbdiv
?___lbdiv:	; 1 bytes @ 0x5
	global	lcd_putch@c
lcd_putch@c:	; 1 bytes @ 0x5
	global	lcd_goto@pos
lcd_goto@pos:	; 1 bytes @ 0x5
	global	___lbdiv@divisor
___lbdiv@divisor:	; 1 bytes @ 0x5
	global	___awmod@sign
___awmod@sign:	; 1 bytes @ 0x5
	ds	1
	global	??__tdiv_to_l_
??__tdiv_to_l_:	; 0 bytes @ 0x6
	global	??__div_to_l_
??__div_to_l_:	; 0 bytes @ 0x6
	global	??___lbdiv
??___lbdiv:	; 0 bytes @ 0x6
	global	??___ftge
??___ftge:	; 0 bytes @ 0x6
	global	?___awdiv
?___awdiv:	; 2 bytes @ 0x6
	global	___lbdiv@dividend
___lbdiv@dividend:	; 1 bytes @ 0x6
	global	___awdiv@divisor
___awdiv@divisor:	; 2 bytes @ 0x6
	ds	1
	global	___lbdiv@counter
___lbdiv@counter:	; 1 bytes @ 0x7
	ds	1
	global	??___lldiv
??___lldiv:	; 0 bytes @ 0x8
	global	?___awtoft
?___awtoft:	; 3 bytes @ 0x8
	global	?___lltoft
?___lltoft:	; 3 bytes @ 0x8
	global	___lbdiv@quotient
___lbdiv@quotient:	; 1 bytes @ 0x8
	global	___awtoft@c
___awtoft@c:	; 2 bytes @ 0x8
	global	___awdiv@dividend
___awdiv@dividend:	; 2 bytes @ 0x8
	global	___lldiv@quotient
___lldiv@quotient:	; 4 bytes @ 0x8
	global	___lltoft@c
___lltoft@c:	; 4 bytes @ 0x8
	ds	1
	global	?___bmul
?___bmul:	; 1 bytes @ 0x9
	global	___bmul@multiplicand
___bmul@multiplicand:	; 1 bytes @ 0x9
	ds	1
	global	??___bmul
??___bmul:	; 0 bytes @ 0xA
	global	??___awdiv
??___awdiv:	; 0 bytes @ 0xA
	global	___bmul@product
___bmul@product:	; 1 bytes @ 0xA
	global	___awdiv@counter
___awdiv@counter:	; 1 bytes @ 0xA
	ds	1
	global	??___awtoft
??___awtoft:	; 0 bytes @ 0xB
	global	___bmul@multiplier
___bmul@multiplier:	; 1 bytes @ 0xB
	global	___awtoft@sign
___awtoft@sign:	; 1 bytes @ 0xB
	global	___awdiv@sign
___awdiv@sign:	; 1 bytes @ 0xB
	ds	1
	global	??___lltoft
??___lltoft:	; 0 bytes @ 0xC
	global	___lldiv@counter
___lldiv@counter:	; 1 bytes @ 0xC
	global	___lltoft@exp
___lltoft@exp:	; 1 bytes @ 0xC
	global	___awdiv@quotient
___awdiv@quotient:	; 2 bytes @ 0xC
	ds	1
	global	??___llmod
??___llmod:	; 0 bytes @ 0xD
	global	___llmod@counter
___llmod@counter:	; 1 bytes @ 0xD
	ds	1
	global	??_fround
??_fround:	; 0 bytes @ 0xE
	global	??___ftsub
??___ftsub:	; 0 bytes @ 0xE
psect	cstackBANK0,class=BANK0,space=1
global __pcstackBANK0
__pcstackBANK0:
	global	?___fttol
?___fttol:	; 4 bytes @ 0x0
	global	?___llmod
?___llmod:	; 4 bytes @ 0x0
	global	___fttol@f1
___fttol@f1:	; 3 bytes @ 0x0
	global	___llmod@divisor
___llmod@divisor:	; 4 bytes @ 0x0
	global	__tdiv_to_l_@quot
__tdiv_to_l_@quot:	; 4 bytes @ 0x0
	global	__div_to_l_@quot
__div_to_l_@quot:	; 4 bytes @ 0x0
	ds	4
	global	??___fttol
??___fttol:	; 0 bytes @ 0x4
	global	__tdiv_to_l_@cntr
__tdiv_to_l_@cntr:	; 1 bytes @ 0x4
	global	__div_to_l_@cntr
__div_to_l_@cntr:	; 1 bytes @ 0x4
	global	___llmod@dividend
___llmod@dividend:	; 4 bytes @ 0x4
	ds	1
	global	__tdiv_to_l_@exp1
__tdiv_to_l_@exp1:	; 1 bytes @ 0x5
	global	__div_to_l_@exp1
__div_to_l_@exp1:	; 1 bytes @ 0x5
	ds	2
	global	___fttol@sign1
___fttol@sign1:	; 1 bytes @ 0x7
	ds	1
	global	___fttol@lval
___fttol@lval:	; 4 bytes @ 0x8
	ds	4
	global	___fttol@exp1
___fttol@exp1:	; 1 bytes @ 0xC
	ds	1
	global	?___ftmul
?___ftmul:	; 3 bytes @ 0xD
	global	___ftmul@f1
___ftmul@f1:	; 3 bytes @ 0xD
	ds	3
	global	___ftmul@f2
___ftmul@f2:	; 3 bytes @ 0x10
	ds	3
	global	??___ftmul
??___ftmul:	; 0 bytes @ 0x13
	ds	3
	global	___ftmul@exp
___ftmul@exp:	; 1 bytes @ 0x16
	ds	1
	global	___ftmul@f3_as_product
___ftmul@f3_as_product:	; 3 bytes @ 0x17
	ds	3
	global	___ftmul@cntr
___ftmul@cntr:	; 1 bytes @ 0x1A
	ds	1
	global	___ftmul@sign
___ftmul@sign:	; 1 bytes @ 0x1B
	ds	1
	global	?_scale
?_scale:	; 3 bytes @ 0x1C
	global	?___ftadd
?___ftadd:	; 3 bytes @ 0x1C
	global	___ftadd@f1
___ftadd@f1:	; 3 bytes @ 0x1C
	ds	3
	global	??_scale
??_scale:	; 0 bytes @ 0x1F
	global	___ftadd@f2
___ftadd@f2:	; 3 bytes @ 0x1F
	ds	3
	global	??___ftadd
??___ftadd:	; 0 bytes @ 0x22
	ds	1
	global	_scale$2835
_scale$2835:	; 3 bytes @ 0x23
	ds	2
	global	___ftadd@sign
___ftadd@sign:	; 1 bytes @ 0x25
	ds	1
	global	scale@scl
scale@scl:	; 1 bytes @ 0x26
	global	___ftadd@exp2
___ftadd@exp2:	; 1 bytes @ 0x26
	ds	1
	global	___ftadd@exp1
___ftadd@exp1:	; 1 bytes @ 0x27
	ds	1
	global	?_fround
?_fround:	; 3 bytes @ 0x28
	global	?___ftsub
?___ftsub:	; 3 bytes @ 0x28
	global	___ftsub@f2
___ftsub@f2:	; 3 bytes @ 0x28
	ds	3
	global	___ftsub@f1
___ftsub@f1:	; 3 bytes @ 0x2B
	global	_fround$2834
_fround$2834:	; 3 bytes @ 0x2B
	ds	3
	global	_fround$2833
_fround$2833:	; 3 bytes @ 0x2E
	ds	3
	global	fround@prec
fround@prec:	; 1 bytes @ 0x31
	ds	1
	global	?_sprintf
?_sprintf:	; 2 bytes @ 0x32
	global	sprintf@f
sprintf@f:	; 1 bytes @ 0x32
	ds	4
	global	??_sprintf
??_sprintf:	; 0 bytes @ 0x36
	ds	5
	global	??_main
??_main:	; 0 bytes @ 0x3B
	ds	4
	global	main@buffer
main@buffer:	; 11 bytes @ 0x3F
	ds	11
	global	main@char_recibido
main@char_recibido:	; 1 bytes @ 0x4A
	ds	1
	global	main@i
main@i:	; 2 bytes @ 0x4B
	ds	2
	global	main@i_1825
main@i_1825:	; 2 bytes @ 0x4D
	ds	2
	global	main@x
main@x:	; 1 bytes @ 0x4F
	ds	1
;;Data sizes: Strings 13, constant 118, data 11, bss 5, persistent 0 stack 0
;;Auto spaces:   Size  Autos    Used
;; COMMON          14     14      14
;; BANK0           80     80      80
;; BANK1           80     23      39
;; BANK3           96      0       0
;; BANK2           96      0       0

;;
;; Pointer list with targets:

;; ?___ftpack	float  size(1) Largest target is 0
;;
;; ?___lldiv	unsigned long  size(1) Largest target is 0
;;
;; ?___llmod	unsigned long  size(1) Largest target is 0
;;
;; ?___ftsub	float  size(1) Largest target is 0
;;
;; ?___lltoft	float  size(1) Largest target is 0
;;
;; ?__tdiv_to_l_	unsigned long  size(1) Largest target is 0
;;
;; ?__div_to_l_	unsigned long  size(1) Largest target is 0
;;
;; ?___fttol	long  size(1) Largest target is 0
;;
;; ?___ftadd	float  size(1) Largest target is 0
;;
;; ?___ftneg	float  size(1) Largest target is 0
;;
;; ?___awmod	int  size(1) Largest target is 40
;;		 -> dpowers(CODE[40]), 
;;
;; ?___awdiv	int  size(1) Largest target is 0
;;
;; ?_scale	int  size(1) Largest target is 0
;;
;; ?___wmul	unsigned int  size(1) Largest target is 0
;;
;; ?_fround	unsigned int  size(1) Largest target is 0
;;
;; ?___ftmul	float  size(1) Largest target is 0
;;
;; ?___awtoft	float  size(1) Largest target is 0
;;
;; sprintf@f	PTR const unsigned char  size(1) Largest target is 13
;;		 -> STR_1(CODE[13]), 
;;
;; sprintf@sp	PTR unsigned char  size(1) Largest target is 11
;;		 -> main@buffer(BANK0[11]), 
;;
;; ?_sprintf	int  size(1) Largest target is 0
;;
;; sprintf@ap	PTR void [1] size(1) Largest target is 2
;;		 -> ?_sprintf(BANK0[2]), 
;;
;; S1877$_cp	PTR const unsigned char  size(1) Largest target is 0
;;
;; _val._str._cp	PTR const unsigned char  size(1) Largest target is 0
;;
;; pa	PTR unsigned char  size(1) Largest target is 1
;;		 -> PORTA(BITSFR0[1]), 
;;


;;
;; Critical Paths under _main in COMMON
;;
;;   _sprintf->___awdiv
;;   _sprintf->__div_to_l_
;;   _sprintf->___llmod
;;   _lcd_goto->_lcd_write
;;   _lcd_putch->_lcd_write
;;   _lcd_clear->_lcd_write
;;   _scale->___awdiv
;;   _lcd_write->_pause
;;   ___lltoft->___ftpack
;;   ___awtoft->___ftpack
;;   ___ftmul->___awdiv
;;   ___llmod->___lldiv
;;   ___awdiv->___awmod
;;   ___fttol->___awdiv
;;   ___lbdiv->___lbmod
;;   ___bmul->___lbdiv
;;
;; Critical Paths under _main in BANK0
;;
;;   _main->_sprintf
;;   _sprintf->_fround
;;   ___ftsub->___ftadd
;;   _scale->___ftmul
;;   _fround->___ftadd
;;   ___ftmul->___fttol
;;   ___ftadd->___ftmul
;;
;; Critical Paths under _main in BANK1
;;
;;   _main->_sprintf
;;
;; Critical Paths under _main in BANK3
;;
;;   None.
;;
;; Critical Paths under _main in BANK2
;;
;;   None.

;;
;;Main: autosize = 0, tempsize = 4, incstack = 0, save=0
;;

;;
;;Call Graph Tables:
;;
;; ---------------------------------------------------------------------------------
;; (Depth) Function   	        Calls       Base Space   Used Autos Params    Refs
;; ---------------------------------------------------------------------------------
;; (0) _main                                                23    23      0   10923
;;                                             59 BANK0     21    21      0
;;                              _pause
;;                          _lcd_write
;;                          _lcd_clear
;;                              _putch
;;                           ___awtoft
;;                            ___ftmul
;;                            _sprintf
;;                              _getch
;;                           _lcd_goto
;;                          _lcd_putch
;; ---------------------------------------------------------------------------------
;; (1) _sprintf                                             38    34      4    9257
;;                                             50 BANK0      9     5      4
;;                                              0 BANK1     23    23      0
;;                             ___ftge
;;                            ___ftneg
;;                             ___wmul
;;                            ___awdiv
;;                              _scale
;;                            ___ftmul
;;                             _fround
;;                            ___ftadd
;;                            ___fttol
;;                         __div_to_l_
;;                        __tdiv_to_l_
;;                           ___lltoft
;;                            ___ftsub
;;                            ___lldiv
;;                            ___llmod
;; ---------------------------------------------------------------------------------
;; (1) _lcd_goto                                             1     1      0     112
;;                                              5 COMMON     1     1      0
;;                          _lcd_write
;; ---------------------------------------------------------------------------------
;; (1) _lcd_putch                                            1     1      0     112
;;                                              5 COMMON     1     1      0
;;                          _lcd_write
;; ---------------------------------------------------------------------------------
;; (1) _lcd_clear                                            0     0      0     136
;;                          _lcd_write
;;                              _pause
;; ---------------------------------------------------------------------------------
;; (2) ___ftsub                                              6     0      6    1094
;;                                             40 BANK0      6     0      6
;;                            ___ftadd
;;                           ___lltoft (ARG)
;; ---------------------------------------------------------------------------------
;; (2) _scale                                               14    11      3    1688
;;                                             28 BANK0     11     8      3
;;                            ___awmod
;;                            ___awdiv
;;                            ___ftmul
;;                             ___bmul
;;                            ___fttol (ARG)
;; ---------------------------------------------------------------------------------
;; (2) _fround                                              13    10      3    1215
;;                                             40 BANK0     10     7      3
;;                            ___lbmod
;;                             ___bmul
;;                            ___lbdiv
;;                            ___ftmul
;;                            ___ftadd (ARG)
;; ---------------------------------------------------------------------------------
;; (2) _lcd_write                                            1     1      0      90
;;                                              4 COMMON     1     1      0
;;                              _pause
;; ---------------------------------------------------------------------------------
;; (2) ___lltoft                                             5     1      4     278
;;                                              8 COMMON     5     1      4
;;                           ___ftpack
;; ---------------------------------------------------------------------------------
;; (1) ___awtoft                                             4     1      3     300
;;                                              8 COMMON     4     1      3
;;                           ___ftpack
;; ---------------------------------------------------------------------------------
;; (3) ___ftmul                                             15     9      6     535
;;                                             13 BANK0     15     9      6
;;                           ___ftpack
;;                           ___awtoft (ARG)
;;                            ___fttol (ARG)
;;                            ___awdiv (ARG)
;;                            ___awmod (ARG)
;;                             ___bmul (ARG)
;;                            ___lbdiv (ARG)
;;                            ___lbmod (ARG)
;; ---------------------------------------------------------------------------------
;; (3) ___ftadd                                             12     6      6    1049
;;                                             28 BANK0     12     6      6
;;                           ___ftpack
;;                            ___lbmod (ARG)
;;                             ___bmul (ARG)
;;                            ___lbdiv (ARG)
;;                            ___ftmul (ARG)
;; ---------------------------------------------------------------------------------
;; (3) _pause                                                4     2      2      46
;;                                              0 COMMON     4     2      2
;;                           _msecbase
;; ---------------------------------------------------------------------------------
;; (3) ___awmod                                              6     2      4     296
;;                                              0 COMMON     6     2      4
;; ---------------------------------------------------------------------------------
;; (2) ___lldiv                                             13     5      8     162
;;                                              0 COMMON    13     5      8
;; ---------------------------------------------------------------------------------
;; (2) ___ftge                                               6     0      6     136
;;                                              0 COMMON     6     0      6
;; ---------------------------------------------------------------------------------
;; (2) ___ftneg                                              3     0      3      45
;;                                              0 COMMON     3     0      3
;; ---------------------------------------------------------------------------------
;; (2) ___llmod                                              9     1      8     159
;;                                             13 COMMON     1     1      0
;;                                              0 BANK0      8     0      8
;;                            ___lldiv (ARG)
;; ---------------------------------------------------------------------------------
;; (3) ___awdiv                                              8     4      4     300
;;                                              6 COMMON     8     4      4
;;                            ___awmod (ARG)
;; ---------------------------------------------------------------------------------
;; (2) ___fttol                                             13     9      4     252
;;                                              0 BANK0     13     9      4
;;                           ___ftpack (ARG)
;;                            ___awmod (ARG)
;;                            ___awdiv (ARG)
;;                             ___bmul (ARG)
;; ---------------------------------------------------------------------------------
;; (4) ___ftpack                                             8     3      5     209
;;                                              0 COMMON     8     3      5
;; ---------------------------------------------------------------------------------
;; (3) ___lbmod                                              5     4      1     159
;;                                              0 COMMON     5     4      1
;; ---------------------------------------------------------------------------------
;; (3) ___lbdiv                                              4     3      1     162
;;                                              5 COMMON     4     3      1
;;                            ___lbmod (ARG)
;; ---------------------------------------------------------------------------------
;; (2) ___wmul                                               6     2      4      92
;;                                              0 COMMON     6     2      4
;; ---------------------------------------------------------------------------------
;; (3) ___bmul                                               3     2      1      68
;;                                              9 COMMON     3     2      1
;;                            ___lbmod (ARG)
;;                            ___lbdiv (ARG)
;; ---------------------------------------------------------------------------------
;; (2) __div_to_l_                                          20    14      6     446
;;                                              0 COMMON    14     8      6
;;                                              0 BANK0      6     6      0
;; ---------------------------------------------------------------------------------
;; (2) __tdiv_to_l_                                         15     9      6     303
;;                                              0 COMMON     9     3      6
;;                                              0 BANK0      6     6      0
;; ---------------------------------------------------------------------------------
;; (1) _getch                                                0     0      0       0
;; ---------------------------------------------------------------------------------
;; (1) _putch                                                1     1      0      22
;;                                              0 COMMON     1     1      0
;; ---------------------------------------------------------------------------------
;; (4) _msecbase                                             0     0      0       0
;; ---------------------------------------------------------------------------------
;; Estimated maximum stack depth 4
;; ---------------------------------------------------------------------------------

;; Call Graph Graphs:

;; _main (ROOT)
;;   _pause
;;     _msecbase
;;   _lcd_write
;;     _pause
;;       _msecbase
;;   _lcd_clear
;;     _lcd_write
;;       _pause
;;         _msecbase
;;     _pause
;;       _msecbase
;;   _putch
;;   ___awtoft
;;     ___ftpack
;;   ___ftmul
;;     ___ftpack
;;     ___awtoft (ARG)
;;       ___ftpack
;;     ___fttol (ARG)
;;       ___ftpack (ARG)
;;       ___awmod (ARG)
;;       ___awdiv (ARG)
;;         ___awmod (ARG)
;;       ___bmul (ARG)
;;         ___lbmod (ARG)
;;         ___lbdiv (ARG)
;;           ___lbmod (ARG)
;;     ___awdiv (ARG)
;;       ___awmod (ARG)
;;     ___awmod (ARG)
;;     ___bmul (ARG)
;;       ___lbmod (ARG)
;;       ___lbdiv (ARG)
;;         ___lbmod (ARG)
;;     ___lbdiv (ARG)
;;       ___lbmod (ARG)
;;     ___lbmod (ARG)
;;   _sprintf
;;     ___ftge
;;     ___ftneg
;;     ___wmul
;;     ___awdiv
;;       ___awmod (ARG)
;;     _scale
;;       ___awmod
;;       ___awdiv
;;         ___awmod (ARG)
;;       ___ftmul
;;         ___ftpack
;;         ___awtoft (ARG)
;;           ___ftpack
;;         ___fttol (ARG)
;;           ___ftpack (ARG)
;;           ___awmod (ARG)
;;           ___awdiv (ARG)
;;             ___awmod (ARG)
;;           ___bmul (ARG)
;;             ___lbmod (ARG)
;;             ___lbdiv (ARG)
;;               ___lbmod (ARG)
;;         ___awdiv (ARG)
;;           ___awmod (ARG)
;;         ___awmod (ARG)
;;         ___bmul (ARG)
;;           ___lbmod (ARG)
;;           ___lbdiv (ARG)
;;             ___lbmod (ARG)
;;         ___lbdiv (ARG)
;;           ___lbmod (ARG)
;;         ___lbmod (ARG)
;;       ___bmul
;;         ___lbmod (ARG)
;;         ___lbdiv (ARG)
;;           ___lbmod (ARG)
;;       ___fttol (ARG)
;;         ___ftpack (ARG)
;;         ___awmod (ARG)
;;         ___awdiv (ARG)
;;           ___awmod (ARG)
;;         ___bmul (ARG)
;;           ___lbmod (ARG)
;;           ___lbdiv (ARG)
;;             ___lbmod (ARG)
;;     ___ftmul
;;       ___ftpack
;;       ___awtoft (ARG)
;;         ___ftpack
;;       ___fttol (ARG)
;;         ___ftpack (ARG)
;;         ___awmod (ARG)
;;         ___awdiv (ARG)
;;           ___awmod (ARG)
;;         ___bmul (ARG)
;;           ___lbmod (ARG)
;;           ___lbdiv (ARG)
;;             ___lbmod (ARG)
;;       ___awdiv (ARG)
;;         ___awmod (ARG)
;;       ___awmod (ARG)
;;       ___bmul (ARG)
;;         ___lbmod (ARG)
;;         ___lbdiv (ARG)
;;           ___lbmod (ARG)
;;       ___lbdiv (ARG)
;;         ___lbmod (ARG)
;;       ___lbmod (ARG)
;;     _fround
;;       ___lbmod
;;       ___bmul
;;         ___lbmod (ARG)
;;         ___lbdiv (ARG)
;;           ___lbmod (ARG)
;;       ___lbdiv
;;         ___lbmod (ARG)
;;       ___ftmul
;;         ___ftpack
;;         ___awtoft (ARG)
;;           ___ftpack
;;         ___fttol (ARG)
;;           ___ftpack (ARG)
;;           ___awmod (ARG)
;;           ___awdiv (ARG)
;;             ___awmod (ARG)
;;           ___bmul (ARG)
;;             ___lbmod (ARG)
;;             ___lbdiv (ARG)
;;               ___lbmod (ARG)
;;         ___awdiv (ARG)
;;           ___awmod (ARG)
;;         ___awmod (ARG)
;;         ___bmul (ARG)
;;           ___lbmod (ARG)
;;           ___lbdiv (ARG)
;;             ___lbmod (ARG)
;;         ___lbdiv (ARG)
;;           ___lbmod (ARG)
;;         ___lbmod (ARG)
;;       ___ftadd (ARG)
;;         ___ftpack
;;         ___lbmod (ARG)
;;         ___bmul (ARG)
;;           ___lbmod (ARG)
;;           ___lbdiv (ARG)
;;             ___lbmod (ARG)
;;         ___lbdiv (ARG)
;;           ___lbmod (ARG)
;;         ___ftmul (ARG)
;;           ___ftpack
;;           ___awtoft (ARG)
;;             ___ftpack
;;           ___fttol (ARG)
;;             ___ftpack (ARG)
;;             ___awmod (ARG)
;;             ___awdiv (ARG)
;;               ___awmod (ARG)
;;             ___bmul (ARG)
;;               ___lbmod (ARG)
;;               ___lbdiv (ARG)
;;                 ___lbmod (ARG)
;;           ___awdiv (ARG)
;;             ___awmod (ARG)
;;           ___awmod (ARG)
;;           ___bmul (ARG)
;;             ___lbmod (ARG)
;;             ___lbdiv (ARG)
;;               ___lbmod (ARG)
;;           ___lbdiv (ARG)
;;             ___lbmod (ARG)
;;           ___lbmod (ARG)
;;     ___ftadd
;;       ___ftpack
;;       ___lbmod (ARG)
;;       ___bmul (ARG)
;;         ___lbmod (ARG)
;;         ___lbdiv (ARG)
;;           ___lbmod (ARG)
;;       ___lbdiv (ARG)
;;         ___lbmod (ARG)
;;       ___ftmul (ARG)
;;         ___ftpack
;;         ___awtoft (ARG)
;;           ___ftpack
;;         ___fttol (ARG)
;;           ___ftpack (ARG)
;;           ___awmod (ARG)
;;           ___awdiv (ARG)
;;             ___awmod (ARG)
;;           ___bmul (ARG)
;;             ___lbmod (ARG)
;;             ___lbdiv (ARG)
;;               ___lbmod (ARG)
;;         ___awdiv (ARG)
;;           ___awmod (ARG)
;;         ___awmod (ARG)
;;         ___bmul (ARG)
;;           ___lbmod (ARG)
;;           ___lbdiv (ARG)
;;             ___lbmod (ARG)
;;         ___lbdiv (ARG)
;;           ___lbmod (ARG)
;;         ___lbmod (ARG)
;;     ___fttol
;;       ___ftpack (ARG)
;;       ___awmod (ARG)
;;       ___awdiv (ARG)
;;         ___awmod (ARG)
;;       ___bmul (ARG)
;;         ___lbmod (ARG)
;;         ___lbdiv (ARG)
;;           ___lbmod (ARG)
;;     __div_to_l_
;;     __tdiv_to_l_
;;     ___lltoft
;;       ___ftpack
;;     ___ftsub
;;       ___ftadd
;;         ___ftpack
;;         ___lbmod (ARG)
;;         ___bmul (ARG)
;;           ___lbmod (ARG)
;;           ___lbdiv (ARG)
;;             ___lbmod (ARG)
;;         ___lbdiv (ARG)
;;           ___lbmod (ARG)
;;         ___ftmul (ARG)
;;           ___ftpack
;;           ___awtoft (ARG)
;;             ___ftpack
;;           ___fttol (ARG)
;;             ___ftpack (ARG)
;;             ___awmod (ARG)
;;             ___awdiv (ARG)
;;               ___awmod (ARG)
;;             ___bmul (ARG)
;;               ___lbmod (ARG)
;;               ___lbdiv (ARG)
;;                 ___lbmod (ARG)
;;           ___awdiv (ARG)
;;             ___awmod (ARG)
;;           ___awmod (ARG)
;;           ___bmul (ARG)
;;             ___lbmod (ARG)
;;             ___lbdiv (ARG)
;;               ___lbmod (ARG)
;;           ___lbdiv (ARG)
;;             ___lbmod (ARG)
;;           ___lbmod (ARG)
;;       ___lltoft (ARG)
;;         ___ftpack
;;     ___lldiv
;;     ___llmod
;;       ___lldiv (ARG)
;;   _getch
;;   _lcd_goto
;;     _lcd_write
;;       _pause
;;         _msecbase
;;   _lcd_putch
;;     _lcd_write
;;       _pause
;;         _msecbase
;;

;; Address spaces:

;;Name               Size   Autos  Total    Cost      Usage
;;BANK3               60      0       0       9        0.0%
;;BITBANK3            60      0       0       8        0.0%
;;SFR3                 0      0       0       4        0.0%
;;BITSFR3              0      0       0       4        0.0%
;;BANK2               60      0       0      11        0.0%
;;BITBANK2            60      0       0      10        0.0%
;;SFR2                 0      0       0       5        0.0%
;;BITSFR2              0      0       0       5        0.0%
;;SFR1                 0      0       0       2        0.0%
;;BITSFR1              0      0       0       2        0.0%
;;BANK1               50     17      27       7       48.8%
;;BITBANK1            50      0       0       6        0.0%
;;CODE                 0      0       0       0        0.0%
;;DATA                 0      0      89      12        0.0%
;;ABS                  0      0      85       3        0.0%
;;NULL                 0      0       0       0        0.0%
;;STACK                0      0       4       2        0.0%
;;BANK0               50     50      50       5      100.0%
;;BITBANK0            50      0       0       4        0.0%
;;SFR0                 0      0       0       1        0.0%
;;BITSFR0              0      0       0       1        0.0%
;;COMMON               E      E       E       1      100.0%
;;BITCOMMON            E      0       0       0        0.0%
;;EEDATA             100      0       0       0        0.0%

	global	_main
psect	maintext,global,class=CODE,delta=2
global __pmaintext
__pmaintext:

;; *************** function _main *****************
;; Defined at:
;;		line 104 in file "C:\Users\petir\Documents\PIC_PROG\C_PuertoSerial\C_PuertoSerial_usart.c"
;; Parameters:    Size  Location     Type
;;		None
;; Auto vars:     Size  Location     Type
;;  x               1   79[BANK0 ] unsigned char 
;;  i               2   77[BANK0 ] int 
;;  i               2   75[BANK0 ] int 
;;  buffer         11   63[BANK0 ] unsigned char [11]
;;  char_recibid    1   74[BANK0 ] unsigned char 
;;  pos             1    0        unsigned char 
;;  char_pwm        1    0        unsigned char 
;; Return value:  Size  Location     Type
;;		None               void
;; Registers used:
;;		wreg, fsr0l, fsr0h, status,2, status,0, btemp+1, pclath, cstack
;; Tracked objects:
;;		On entry : 17F/0
;;		On exit  : 160/0
;;		Unchanged: FFE00/0
;; Data sizes:     COMMON   BANK0   BANK1   BANK3   BANK2
;;      Params:         0       0       0       0       0
;;      Locals:         0      17       0       0       0
;;      Temps:          0       4       0       0       0
;;      Totals:         0      21       0       0       0
;;Total ram usage:       21 bytes
;; Hardware stack levels required when called:    4
;; This function calls:
;;		_pause
;;		_lcd_write
;;		_lcd_clear
;;		_putch
;;		___awtoft
;;		___ftmul
;;		_sprintf
;;		_getch
;;		_lcd_goto
;;		_lcd_putch
;; This function is called by:
;;		Startup code after reset
;; This function uses a non-reentrant model
;;
psect	maintext
	file	"C:\Users\petir\Documents\PIC_PROG\C_PuertoSerial\C_PuertoSerial_usart.c"
	line	104
	global	__size_of_main
	__size_of_main	equ	__end_of_main-_main
	
_main:	
	opt	stack 4
; Regs used in _main: [wreg-fsr0h+status,2+status,0+btemp+1+pclath+cstack]
	line	105
	
l5415:	
;C_PuertoSerial_usart.c: 105: ANSEL=0x00;
	bsf	status, 5	;RP0=1, select bank3
	bsf	status, 6	;RP1=1, select bank3
	clrf	(392)^0180h	;volatile
	line	106
;C_PuertoSerial_usart.c: 106: ANSELH=0x00;
	clrf	(393)^0180h	;volatile
	line	107
;C_PuertoSerial_usart.c: 107: INTCON=0x00;
	clrf	(11)	;volatile
	line	108
;C_PuertoSerial_usart.c: 108: TRISA = 0x00;
	bcf	status, 6	;RP1=0, select bank1
	clrf	(133)^080h	;volatile
	line	109
;C_PuertoSerial_usart.c: 109: TRISB = 0x00;
	clrf	(134)^080h	;volatile
	line	110
;C_PuertoSerial_usart.c: 110: TRISD = 0x00;
	clrf	(136)^080h	;volatile
	line	113
	
l5417:	
;C_PuertoSerial_usart.c: 113: TRISE=0x03;
	movlw	(03h)
	movwf	(137)^080h	;volatile
	line	114
	
l5419:	
;C_PuertoSerial_usart.c: 114: ADCON1=0b00000000;
	clrf	(159)^080h	;volatile
	line	115
;C_PuertoSerial_usart.c: 115: PR2=0xFF;
	movlw	(0FFh)
	movwf	(146)^080h	;volatile
	line	117
;C_PuertoSerial_usart.c: 117: CCP1CON = 0xC0;
	movlw	(0C0h)
	bcf	status, 5	;RP0=0, select bank0
	movwf	(23)	;volatile
	line	118
;C_PuertoSerial_usart.c: 118: CCP2CON = 0xC0;
	movlw	(0C0h)
	movwf	(29)	;volatile
	line	119
	
l5421:	
;C_PuertoSerial_usart.c: 119: T2CKPS1 = 1;
	bsf	(145/8),(145)&7
	line	120
	
l5423:	
;C_PuertoSerial_usart.c: 120: T2CKPS0 = 1;
	bsf	(144/8),(144)&7
	line	121
	
l5425:	
;C_PuertoSerial_usart.c: 121: TMR2ON = 1;
	bsf	(146/8),(146)&7
	line	124
	
l5427:	
;C_PuertoSerial_usart.c: 124: RA7=0;
	bcf	(47/8),(47)&7
	line	125
	
l5429:	
;C_PuertoSerial_usart.c: 125: RA6=0;
	bcf	(46/8),(46)&7
	line	126
	
l5431:	
;C_PuertoSerial_usart.c: 126: RE1=0;
	bcf	(73/8),(73)&7
	line	128
;C_PuertoSerial_usart.c: 128: PORTD=init_value;
	movlw	(03h)
	movwf	(8)	;volatile
	line	129
	
l5433:	
;C_PuertoSerial_usart.c: 129: ((RA6=1),(RA6=0));
	bsf	(46/8),(46)&7
	
l5435:	
	bcf	(46/8),(46)&7
	line	130
	
l5437:	
;C_PuertoSerial_usart.c: 130: pause(10);
	movlw	0Ah
	movwf	(?_pause)
	clrf	(?_pause+1)
	fcall	_pause
	line	131
	
l5439:	
;C_PuertoSerial_usart.c: 131: ((RA6=1),(RA6=0));
	bcf	status, 5	;RP0=0, select bank0
	bcf	status, 6	;RP1=0, select bank0
	bsf	(46/8),(46)&7
	
l5441:	
	bcf	(46/8),(46)&7
	line	132
	
l5443:	
;C_PuertoSerial_usart.c: 132: pause(10);
	movlw	0Ah
	movwf	(?_pause)
	clrf	(?_pause+1)
	fcall	_pause
	line	133
	
l5445:	
;C_PuertoSerial_usart.c: 133: ((RA6=1),(RA6=0));
	bcf	status, 5	;RP0=0, select bank0
	bcf	status, 6	;RP1=0, select bank0
	bsf	(46/8),(46)&7
	
l5447:	
	bcf	(46/8),(46)&7
	line	134
	
l5449:	
;C_PuertoSerial_usart.c: 134: pause(10);
	movlw	0Ah
	movwf	(?_pause)
	clrf	(?_pause+1)
	fcall	_pause
	line	135
	
l5451:	
;C_PuertoSerial_usart.c: 135: PORTD=2;
	movlw	(02h)
	bcf	status, 5	;RP0=0, select bank0
	bcf	status, 6	;RP1=0, select bank0
	movwf	(8)	;volatile
	line	136
	
l5453:	
;C_PuertoSerial_usart.c: 136: ((RA6=1),(RA6=0));
	bsf	(46/8),(46)&7
	
l5455:	
	bcf	(46/8),(46)&7
	line	138
;C_PuertoSerial_usart.c: 138: lcd_write(0x28);
	movlw	(028h)
	fcall	_lcd_write
	line	139
;C_PuertoSerial_usart.c: 139: lcd_write(0xC);
	movlw	(0Ch)
	fcall	_lcd_write
	line	140
;C_PuertoSerial_usart.c: 140: lcd_clear();
	fcall	_lcd_clear
	line	141
;C_PuertoSerial_usart.c: 141: lcd_write(0x06);
	movlw	(06h)
	fcall	_lcd_write
	line	143
	
l5457:	
;C_PuertoSerial_usart.c: 143: TRISC7=1;
	bsf	status, 5	;RP0=1, select bank1
	bsf	(1087/8)^080h,(1087)&7
	line	144
	
l5459:	
;C_PuertoSerial_usart.c: 144: TRISC6=0;
	bcf	(1086/8)^080h,(1086)&7
	line	145
	
l5461:	
;C_PuertoSerial_usart.c: 145: OSCCON=0x70;
	movlw	(070h)
	movwf	(143)^080h	;volatile
	line	146
	
l5463:	
;C_PuertoSerial_usart.c: 146: SPBRG=12;
	movlw	(0Ch)
	movwf	(153)^080h	;volatile
	line	147
	
l5465:	
;C_PuertoSerial_usart.c: 147: RCSTA=0x90;
	movlw	(090h)
	bcf	status, 5	;RP0=0, select bank0
	movwf	(24)	;volatile
	line	148
	
l5467:	
;C_PuertoSerial_usart.c: 148: TXSTA=0x20;
	movlw	(020h)
	bsf	status, 5	;RP0=1, select bank1
	movwf	(152)^080h	;volatile
	line	149
	
l5469:	
;C_PuertoSerial_usart.c: 149: BAUDCTL=0x00;
	bsf	status, 6	;RP1=1, select bank3
	clrf	(391)^0180h	;volatile
	line	150
	
l5471:	
;C_PuertoSerial_usart.c: 150: pause(500);
	movlw	low(01F4h)
	movwf	(?_pause)
	movlw	high(01F4h)
	movwf	((?_pause))+1
	fcall	_pause
	line	151
	
l5473:	
;C_PuertoSerial_usart.c: 151: PORTA=0x01;
	movlw	(01h)
	bcf	status, 5	;RP0=0, select bank0
	bcf	status, 6	;RP1=0, select bank0
	movwf	(5)	;volatile
	line	152
	
l5475:	
;C_PuertoSerial_usart.c: 152: *pa=0xFF;
	movlw	(0FFh)
	movwf	(5)
	line	156
	
l5477:	
;C_PuertoSerial_usart.c: 159: unsigned char pos=0;
	movlw	(main@buffer)&0ffh
	movwf	fsr0
	movlw	low(main@F1732)
	movwf	(??_main+0)+0
	movf	fsr0,w
	movwf	((??_main+0)+0+1)
	movlw	11
	movwf	((??_main+0)+0+2)
u2770:
	movf	(??_main+0)+0,w
	movwf	fsr0
	bcf	status, 7	;select IRP bank1
	
	movf	indf,w
	movwf	((??_main+0)+0+3)
	incf	(??_main+0)+0,f
	movf	((??_main+0)+0+1),w
	movwf	fsr0
	
	movf	((??_main+0)+0+3),w
	movwf	indf
	incf	((??_main+0)+0+1),f
	decfsz	((??_main+0)+0+2),f
	goto	u2770
	line	160
	
l5479:	
;C_PuertoSerial_usart.c: 160: for(int i=48; i<58; i++){
	movlw	030h
	movwf	(main@i)
	clrf	(main@i+1)
	line	161
	
l5485:	
;C_PuertoSerial_usart.c: 161: putch(i);
	bcf	status, 5	;RP0=0, select bank0
	bcf	status, 6	;RP1=0, select bank0
	movf	(main@i),w
	fcall	_putch
	line	162
;C_PuertoSerial_usart.c: 162: pause(20);
	movlw	014h
	movwf	(?_pause)
	clrf	(?_pause+1)
	fcall	_pause
	line	160
	
l5487:	
	bcf	status, 5	;RP0=0, select bank0
	bcf	status, 6	;RP1=0, select bank0
	incf	(main@i),f
	skipnz
	incf	(main@i+1),f
	
l5489:	
	movf	(main@i+1),w
	xorlw	80h
	movwf	btemp+1
	movlw	(high(03Ah))^80h
	subwf	btemp+1,w
	skipz
	goto	u2785
	movlw	low(03Ah)
	subwf	(main@i),w
u2785:

	skipc
	goto	u2781
	goto	u2780
u2781:
	goto	l5485
u2780:
	line	164
	
l5491:	
;C_PuertoSerial_usart.c: 163: }
;C_PuertoSerial_usart.c: 164: putch(0x0D);
	movlw	(0Dh)
	fcall	_putch
	line	165
;C_PuertoSerial_usart.c: 165: putch(0x0A);
	movlw	(0Ah)
	fcall	_putch
	line	167
	
l5493:	
;C_PuertoSerial_usart.c: 167: for(int i=97; i<123; i++){
	movlw	061h
	movwf	(main@i_1825)
	clrf	(main@i_1825+1)
	line	168
	
l5499:	
;C_PuertoSerial_usart.c: 168: putch(i);
	bcf	status, 5	;RP0=0, select bank0
	bcf	status, 6	;RP1=0, select bank0
	movf	(main@i_1825),w
	fcall	_putch
	line	169
;C_PuertoSerial_usart.c: 169: pause(20);
	movlw	014h
	movwf	(?_pause)
	clrf	(?_pause+1)
	fcall	_pause
	line	167
	
l5501:	
	bcf	status, 5	;RP0=0, select bank0
	bcf	status, 6	;RP1=0, select bank0
	incf	(main@i_1825),f
	skipnz
	incf	(main@i_1825+1),f
	
l5503:	
	movf	(main@i_1825+1),w
	xorlw	80h
	movwf	btemp+1
	movlw	(high(07Bh))^80h
	subwf	btemp+1,w
	skipz
	goto	u2795
	movlw	low(07Bh)
	subwf	(main@i_1825),w
u2795:

	skipc
	goto	u2791
	goto	u2790
u2791:
	goto	l5499
u2790:
	line	171
	
l5505:	
;C_PuertoSerial_usart.c: 170: }
;C_PuertoSerial_usart.c: 171: putch(0x0D);
	movlw	(0Dh)
	fcall	_putch
	line	172
;C_PuertoSerial_usart.c: 172: putch(0x0A);
	movlw	(0Ah)
	fcall	_putch
	line	173
	
l5507:	
;C_PuertoSerial_usart.c: 173: PORTA=0x00;
	clrf	(5)	;volatile
	line	174
	
l5509:	
;C_PuertoSerial_usart.c: 174: pause(1000);
	movlw	low(03E8h)
	movwf	(?_pause)
	movlw	high(03E8h)
	movwf	((?_pause))+1
	fcall	_pause
	line	182
	
l5511:	
;C_PuertoSerial_usart.c: 182: ADCON0=0b11010101;
	movlw	(0D5h)
	bcf	status, 5	;RP0=0, select bank0
	bcf	status, 6	;RP1=0, select bank0
	movwf	(31)	;volatile
	line	183
	
l5513:	
;C_PuertoSerial_usart.c: 183: GO_DONE = 1;
	bsf	(249/8),(249)&7
	line	184
;C_PuertoSerial_usart.c: 184: while (GO_DONE ==1);
	
l1092:	
	btfsc	(249/8),(249)&7
	goto	u2801
	goto	u2800
u2801:
	goto	l1092
u2800:
	line	185
	
l5515:	
;C_PuertoSerial_usart.c: 185: nin=(ADRESH<<2)|(ADRESL>>6);
	movf	(30),w	;volatile
	bsf	status, 5	;RP0=1, select bank1
	movwf	(_nin)^080h
	clrf	(_nin+1)^080h
	
l5517:	
	clrc
	rlf	(_nin)^080h,f
	rlf	(_nin+1)^080h,f
	clrc
	rlf	(_nin)^080h,f
	rlf	(_nin+1)^080h,f
	movf	(158)^080h,w	;volatile
	bcf	status, 5	;RP0=0, select bank0
	movwf	(??_main+0)+0
	movlw	06h
u2815:
	clrc
	rrf	(??_main+0)+0,f
	addlw	-1
	skipz
	goto	u2815
	movf	0+(??_main+0)+0,w
	bsf	status, 5	;RP0=1, select bank1
	iorwf	(_nin)^080h,f
	line	186
	
l5519:	
;C_PuertoSerial_usart.c: 186: CCPR1L=ADRESH;
	bcf	status, 5	;RP0=0, select bank0
	movf	(30),w	;volatile
	movwf	(21)	;volatile
	line	187
	
l5521:	
;C_PuertoSerial_usart.c: 187: num= num1*nin;
	movlw	0x28
	movwf	(?___ftmul)
	movlw	0xa0
	movwf	(?___ftmul+1)
	movlw	0x3b
	movwf	(?___ftmul+2)
	bsf	status, 5	;RP0=1, select bank1
	movf	(_nin+1)^080h,w
	movwf	(?___awtoft+1)
	movf	(_nin)^080h,w
	movwf	(?___awtoft)
	fcall	___awtoft
	movf	(0+(?___awtoft)),w
	bcf	status, 5	;RP0=0, select bank0
	movwf	0+(?___ftmul)+03h
	movf	(1+(?___awtoft)),w
	movwf	1+(?___ftmul)+03h
	movf	(2+(?___awtoft)),w
	movwf	2+(?___ftmul)+03h
	fcall	___ftmul
	movf	(0+(?___ftmul)),w
	bsf	status, 5	;RP0=1, select bank1
	movwf	(_num)^080h
	bcf	status, 5	;RP0=0, select bank0
	movf	(1+(?___ftmul)),w
	bsf	status, 5	;RP0=1, select bank1
	movwf	(_num+1)^080h
	bcf	status, 5	;RP0=0, select bank0
	movf	(2+(?___ftmul)),w
	bsf	status, 5	;RP0=1, select bank1
	movwf	(_num+2)^080h
	line	189
	
l5523:	
;C_PuertoSerial_usart.c: 189: sprintf(buffer,"Valor es: %f",num);
	movlw	((STR_1-__stringbase))&0ffh
	bcf	status, 5	;RP0=0, select bank0
	movwf	(?_sprintf)
	bsf	status, 5	;RP0=1, select bank1
	movf	(_num)^080h,w
	bcf	status, 5	;RP0=0, select bank0
	movwf	0+(?_sprintf)+01h
	bsf	status, 5	;RP0=1, select bank1
	movf	(_num+1)^080h,w
	bcf	status, 5	;RP0=0, select bank0
	movwf	1+(?_sprintf)+01h
	bsf	status, 5	;RP0=1, select bank1
	movf	(_num+2)^080h,w
	bcf	status, 5	;RP0=0, select bank0
	movwf	2+(?_sprintf)+01h
	movlw	(main@buffer)&0ffh
	fcall	_sprintf
	line	192
	
l5525:	
;C_PuertoSerial_usart.c: 192: char_recibido = getch();
	fcall	_getch
	movwf	(main@char_recibido)
	line	194
	
l5527:	
;C_PuertoSerial_usart.c: 194: putch(char_recibido);
	movf	(main@char_recibido),w
	fcall	_putch
	line	195
	
l5529:	
;C_PuertoSerial_usart.c: 195: putch(0x0D);
	movlw	(0Dh)
	fcall	_putch
	line	196
	
l5531:	
;C_PuertoSerial_usart.c: 196: putch(0x0A);
	movlw	(0Ah)
	fcall	_putch
	line	198
	
l5533:	
;C_PuertoSerial_usart.c: 198: lcd_goto(0);
	movlw	(0)
	fcall	_lcd_goto
	line	199
	
l5535:	
;C_PuertoSerial_usart.c: 199: lcd_putch(char_recibido);
	movf	(main@char_recibido),w
	fcall	_lcd_putch
	line	200
	
l5537:	
;C_PuertoSerial_usart.c: 200: pause(500);
	movlw	low(01F4h)
	movwf	(?_pause)
	movlw	high(01F4h)
	movwf	((?_pause))+1
	fcall	_pause
	line	220
	
l5539:	
;C_PuertoSerial_usart.c: 220: for (char x = 0; x<17; x++)
	bcf	status, 5	;RP0=0, select bank0
	bcf	status, 6	;RP1=0, select bank0
	clrf	(main@x)
	line	222
	
l5545:	
;C_PuertoSerial_usart.c: 221: {
;C_PuertoSerial_usart.c: 222: putch (buffer[x]);
	movf	(main@x),w
	addlw	main@buffer&0ffh
	movwf	fsr0
	movf	indf,w
	fcall	_putch
	line	220
	
l5547:	
	incf	(main@x),f
	
l5549:	
	movlw	(011h)
	subwf	(main@x),w
	skipc
	goto	u2821
	goto	u2820
u2821:
	goto	l5545
u2820:
	line	224
	
l5551:	
;C_PuertoSerial_usart.c: 223: }
;C_PuertoSerial_usart.c: 224: pause(200);
	movlw	0C8h
	movwf	(?_pause)
	clrf	(?_pause+1)
	fcall	_pause
	line	228
;C_PuertoSerial_usart.c: 228: putch(0x0D);
	movlw	(0Dh)
	fcall	_putch
	line	229
;C_PuertoSerial_usart.c: 229: putch(0x0A);
	movlw	(0Ah)
	fcall	_putch
	goto	l5511
	global	start
	ljmp	start
	opt stack 0
psect	maintext
	line	236
GLOBAL	__end_of_main
	__end_of_main:
;; =============== function _main ends ============

	signat	_main,88
	global	_sprintf
psect	text514,local,class=CODE,delta=2
global __ptext514
__ptext514:

;; *************** function _sprintf *****************
;; Defined at:
;;		line 488 in file "C:\Program Files (x86)\HI-TECH Software\PICC\9.82\lib\doprnt.c"
;; Parameters:    Size  Location     Type
;;  sp              1    wreg     PTR unsigned char 
;;		 -> main@buffer(11), 
;;  f               1   50[BANK0 ] PTR const unsigned char 
;;		 -> STR_1(13), 
;; Auto vars:     Size  Location     Type
;;  sp              1   16[BANK1 ] PTR unsigned char 
;;		 -> main@buffer(11), 
;;  _val            4    9[BANK1 ] struct .
;;  fval            3   19[BANK1 ] struct .
;;  integ           3   13[BANK1 ] struct .
;;  ival            3    0        struct .
;;  exp             2   17[BANK1 ] int 
;;  prec            2    7[BANK1 ] int 
;;  flag            2    5[BANK1 ] unsigned short 
;;  width           2    0        int 
;;  c               1   22[BANK1 ] char 
;;  ap              1    4[BANK1 ] PTR void [1]
;;		 -> ?_sprintf(2), 
;;  d               1    0        unsigned char 
;; Return value:  Size  Location     Type
;;                  2   50[BANK0 ] int 
;; Registers used:
;;		wreg, fsr0l, fsr0h, status,2, status,0, btemp+1, pclath, cstack
;; Tracked objects:
;;		On entry : 60/0
;;		On exit  : 160/20
;;		Unchanged: FFE00/0
;; Data sizes:     COMMON   BANK0   BANK1   BANK3   BANK2
;;      Params:         0       4       0       0       0
;;      Locals:         0       0      23       0       0
;;      Temps:          0       5       0       0       0
;;      Totals:         0       9      23       0       0
;;Total ram usage:       32 bytes
;; Hardware stack levels used:    1
;; Hardware stack levels required when called:    3
;; This function calls:
;;		___ftge
;;		___ftneg
;;		___wmul
;;		___awdiv
;;		_scale
;;		___ftmul
;;		_fround
;;		___ftadd
;;		___fttol
;;		__div_to_l_
;;		__tdiv_to_l_
;;		___lltoft
;;		___ftsub
;;		___lldiv
;;		___llmod
;; This function is called by:
;;		_main
;; This function uses a non-reentrant model
;;
psect	text514
	file	"C:\Program Files (x86)\HI-TECH Software\PICC\9.82\sources\doprnt.c"
	line	488
	global	__size_of_sprintf
	__size_of_sprintf	equ	__end_of_sprintf-_sprintf
	
_sprintf:	
	opt	stack 4
; Regs used in _sprintf: [wreg-fsr0h+status,2+status,0+btemp+1+pclath+cstack]
;sprintf@sp stored from wreg
	line	537
	bsf	status, 5	;RP0=1, select bank1
	movwf	(sprintf@sp)^080h
	
l5249:	
	movlw	(?_sprintf+01h)&0ffh
	movwf	(sprintf@ap)^080h
	line	540
	goto	l5409
	line	542
	
l5251:	
	movf	(sprintf@c)^080h,w
	xorlw	025h
	skipnz
	goto	u2531
	goto	u2530
u2531:
	goto	l5257
u2530:
	line	545
	
l5253:	
	movf	(sprintf@sp)^080h,w
	movwf	fsr0
	movf	(sprintf@c)^080h,w
	bcf	status, 7	;select IRP bank0
	movwf	indf
	
l5255:	
	incf	(sprintf@sp)^080h,f
	line	546
	goto	l5409
	line	552
	
l5257:	
	clrf	(sprintf@flag)^080h
	clrf	(sprintf@flag+1)^080h
	line	638
	goto	l5261
	line	665
	
l1160:	
	line	666
	bsf	(sprintf@flag)^080h+(10/8),(10)&7
	line	667
	goto	l5263
	line	638
	
l5261:	
	bcf	status, 5	;RP0=0, select bank0
	movf	(sprintf@f),w
	incf	(sprintf@f),f
	movwf	fsr0
	fcall	stringdir
	bsf	status, 5	;RP0=1, select bank1
	movwf	(sprintf@c)^080h
	; Switch size 1, requested type "space"
; Number of cases is 2, Range of values is 0 to 102
; switch strategies available:
; Name         Instructions Cycles
; simple_byte            7     4 (average)
; jumptable            260     6 (fixed)
; rangetable           107     6 (fixed)
; spacedrange          212     9 (fixed)
; locatedrange         103     3 (fixed)
;	Chosen strategy is simple_byte

	opt asmopt_off
	xorlw	0^0	; case 0
	skipnz
	goto	l5411
	xorlw	102^0	; case 102
	skipnz
	goto	l1160
	goto	l5409
	opt asmopt_on

	line	828
	
l5263:	
	movlw	low(0700h)
	andwf	(sprintf@flag)^080h,w
	bcf	status, 5	;RP0=0, select bank0
	movwf	(??_sprintf+0)+0
	movlw	high(0700h)
	bsf	status, 5	;RP0=1, select bank1
	andwf	(sprintf@flag+1)^080h,w
	bcf	status, 5	;RP0=0, select bank0
	movwf	1+(??_sprintf+0)+0
	movf	1+(??_sprintf+0)+0,w
	iorwf	0+(??_sprintf+0)+0,w
	skipnz
	goto	u2541
	goto	u2540
u2541:
	goto	l5403
u2540:
	line	832
	
l5265:	
	movlw	06h
	bsf	status, 5	;RP0=1, select bank1
	movwf	(sprintf@prec)^080h
	clrf	(sprintf@prec+1)^080h
	line	833
	
l5267:	
	movf	(sprintf@ap)^080h,w
	movwf	fsr0
	bcf	status, 7	;select IRP bank0
	movf	indf,w
	movwf	(sprintf@fval)^080h
	incf	fsr0,f
	movf	indf,w
	movwf	(sprintf@fval+1)^080h
	incf	fsr0,f
	movf	indf,w
	movwf	(sprintf@fval+2)^080h
	
l5269:	
	movlw	(03h)
	addwf	(sprintf@ap)^080h,f
	line	834
	
l5271:	
	movf	(sprintf@fval)^080h,w
	movwf	(?___ftge)
	movf	(sprintf@fval+1)^080h,w
	movwf	(?___ftge+1)
	movf	(sprintf@fval+2)^080h,w
	movwf	(?___ftge+2)
	clrf	0+(?___ftge)+03h
	clrf	1+(?___ftge)+03h
	clrf	2+(?___ftge)+03h
	fcall	___ftge
	btfsc	status,0
	goto	u2551
	goto	u2550
u2551:
	goto	l5277
u2550:
	line	835
	
l5273:	
	movf	(sprintf@fval)^080h,w
	movwf	(?___ftneg)
	movf	(sprintf@fval+1)^080h,w
	movwf	(?___ftneg+1)
	movf	(sprintf@fval+2)^080h,w
	movwf	(?___ftneg+2)
	fcall	___ftneg
	movf	(0+(?___ftneg)),w
	movwf	(sprintf@fval)^080h
	movf	(1+(?___ftneg)),w
	movwf	(sprintf@fval+1)^080h
	movf	(2+(?___ftneg)),w
	movwf	(sprintf@fval+2)^080h
	line	836
	
l5275:	
	movlw	03h
	iorwf	(sprintf@flag)^080h,f
	line	838
	
l5277:	
	clrf	(sprintf@exp)^080h
	clrf	(sprintf@exp+1)^080h
	line	839
	
l5279:	
	movf	(sprintf@fval+2)^080h,w
	iorwf	(sprintf@fval+1)^080h,w
	iorwf	(sprintf@fval)^080h,w
	skipnz
	goto	u2561
	goto	u2560
u2561:
	goto	l5309
u2560:
	line	840
	
l5281:	
	movlw	low(sprintf@fval)
	movwf	fsr0
	movf	indf,w
	bcf	status, 5	;RP0=0, select bank0
	movwf	(??_sprintf+0)+0+0
	incf	fsr0,f
	movf	indf,w
	movwf	(??_sprintf+0)+0+1
	incf	fsr0,f
	movf	indf,w
	movwf	(??_sprintf+0)+0+2
	incf	fsr0,f
	movf	indf,w
	movwf	(??_sprintf+0)+0+3
	movlw	0Fh
u2575:
	clrc
	rrf	(??_sprintf+0)+3,f
	rrf	(??_sprintf+0)+2,f
	rrf	(??_sprintf+0)+1,f
	rrf	(??_sprintf+0)+0,f
u2570:
	addlw	-1
	skipz
	goto	u2575
	movf	1+(??_sprintf+0)+0,w
	bsf	status, 5	;RP0=1, select bank1
	movwf	(sprintf@exp+1)^080h
	bcf	status, 5	;RP0=0, select bank0
	movf	0+(??_sprintf+0)+0,w
	bsf	status, 5	;RP0=1, select bank1
	movwf	(sprintf@exp)^080h
	
l5283:	
	movlw	0FFh
	andwf	(sprintf@exp)^080h,f
	clrf	(sprintf@exp+1)^080h
	
l5285:	
	movlw	-126
	addwf	(sprintf@exp)^080h,f
	skipc
	decf	(sprintf@exp+1)^080h,f
	line	841
	
l5287:	
	movlw	-1
	addwf	(sprintf@exp)^080h,f
	skipc
	decf	(sprintf@exp+1)^080h,f
	line	842
	
l5289:	
	movlw	03h
	movwf	(?___wmul)
	clrf	(?___wmul+1)
	movf	(sprintf@exp+1)^080h,w
	movwf	1+(?___wmul)+02h
	movf	(sprintf@exp)^080h,w
	movwf	0+(?___wmul)+02h
	fcall	___wmul
	movf	(1+(?___wmul)),w
	movwf	(sprintf@exp+1)^080h
	movf	(0+(?___wmul)),w
	movwf	(sprintf@exp)^080h
	line	843
	
l5291:	
	movlw	0Ah
	movwf	(?___awdiv)
	clrf	(?___awdiv+1)
	movf	(sprintf@exp+1)^080h,w
	movwf	1+(?___awdiv)+02h
	movf	(sprintf@exp)^080h,w
	movwf	0+(?___awdiv)+02h
	fcall	___awdiv
	movf	(1+(?___awdiv)),w
	movwf	(sprintf@exp+1)^080h
	movf	(0+(?___awdiv)),w
	movwf	(sprintf@exp)^080h
	line	844
	
l5293:	
	btfss	(sprintf@exp+1)^080h,7
	goto	u2581
	goto	u2580
u2581:
	goto	l5297
u2580:
	line	845
	
l5295:	
	movlw	-1
	addwf	(sprintf@exp)^080h,f
	skipc
	decf	(sprintf@exp+1)^080h,f
	line	849
	
l5297:	
	decf	(sprintf@exp)^080h,w
	xorlw	0ffh
	fcall	_scale
	movf	(0+(?_scale)),w
	bsf	status, 5	;RP0=1, select bank1
	movwf	(sprintf@integ)^080h
	bcf	status, 5	;RP0=0, select bank0
	movf	(1+(?_scale)),w
	bsf	status, 5	;RP0=1, select bank1
	movwf	(sprintf@integ+1)^080h
	bcf	status, 5	;RP0=0, select bank0
	movf	(2+(?_scale)),w
	bsf	status, 5	;RP0=1, select bank1
	movwf	(sprintf@integ+2)^080h
	line	850
	
l5299:	
	movf	(sprintf@fval)^080h,w
	bcf	status, 5	;RP0=0, select bank0
	movwf	(?___ftmul)
	bsf	status, 5	;RP0=1, select bank1
	movf	(sprintf@fval+1)^080h,w
	bcf	status, 5	;RP0=0, select bank0
	movwf	(?___ftmul+1)
	bsf	status, 5	;RP0=1, select bank1
	movf	(sprintf@fval+2)^080h,w
	bcf	status, 5	;RP0=0, select bank0
	movwf	(?___ftmul+2)
	bsf	status, 5	;RP0=1, select bank1
	movf	(sprintf@integ)^080h,w
	bcf	status, 5	;RP0=0, select bank0
	movwf	0+(?___ftmul)+03h
	bsf	status, 5	;RP0=1, select bank1
	movf	(sprintf@integ+1)^080h,w
	bcf	status, 5	;RP0=0, select bank0
	movwf	1+(?___ftmul)+03h
	bsf	status, 5	;RP0=1, select bank1
	movf	(sprintf@integ+2)^080h,w
	bcf	status, 5	;RP0=0, select bank0
	movwf	2+(?___ftmul)+03h
	fcall	___ftmul
	movf	(0+(?___ftmul)),w
	bsf	status, 5	;RP0=1, select bank1
	movwf	(sprintf@integ)^080h
	bcf	status, 5	;RP0=0, select bank0
	movf	(1+(?___ftmul)),w
	bsf	status, 5	;RP0=1, select bank1
	movwf	(sprintf@integ+1)^080h
	bcf	status, 5	;RP0=0, select bank0
	movf	(2+(?___ftmul)),w
	bsf	status, 5	;RP0=1, select bank1
	movwf	(sprintf@integ+2)^080h
	line	851
	
l5301:	
	movf	(sprintf@integ)^080h,w
	movwf	(?___ftge)
	movf	(sprintf@integ+1)^080h,w
	movwf	(?___ftge+1)
	movf	(sprintf@integ+2)^080h,w
	movwf	(?___ftge+2)
	movlw	0x0
	movwf	0+(?___ftge)+03h
	movlw	0x80
	movwf	1+(?___ftge)+03h
	movlw	0x3f
	movwf	2+(?___ftge)+03h
	fcall	___ftge
	btfsc	status,0
	goto	u2591
	goto	u2590
u2591:
	goto	l5305
u2590:
	line	852
	
l5303:	
	movlw	-1
	addwf	(sprintf@exp)^080h,f
	skipc
	decf	(sprintf@exp+1)^080h,f
	goto	l5309
	line	853
	
l5305:	
	movf	(sprintf@integ)^080h,w
	movwf	(?___ftge)
	movf	(sprintf@integ+1)^080h,w
	movwf	(?___ftge+1)
	movf	(sprintf@integ+2)^080h,w
	movwf	(?___ftge+2)
	movlw	0x0
	movwf	0+(?___ftge)+03h
	movlw	0x20
	movwf	1+(?___ftge)+03h
	movlw	0x41
	movwf	2+(?___ftge)+03h
	fcall	___ftge
	btfss	status,0
	goto	u2601
	goto	u2600
u2601:
	goto	l5309
u2600:
	line	854
	
l5307:	
	incf	(sprintf@exp)^080h,f
	skipnz
	incf	(sprintf@exp+1)^080h,f
	line	1115
	
l5309:	
	line	1116
	
l5311:	
	movlw	(06h)
	fcall	_fround
	movf	(0+(?_fround)),w
	movwf	(?___ftadd)
	movf	(1+(?_fround)),w
	movwf	(?___ftadd+1)
	movf	(2+(?_fround)),w
	movwf	(?___ftadd+2)
	bsf	status, 5	;RP0=1, select bank1
	movf	(sprintf@fval)^080h,w
	bcf	status, 5	;RP0=0, select bank0
	movwf	0+(?___ftadd)+03h
	bsf	status, 5	;RP0=1, select bank1
	movf	(sprintf@fval+1)^080h,w
	bcf	status, 5	;RP0=0, select bank0
	movwf	1+(?___ftadd)+03h
	bsf	status, 5	;RP0=1, select bank1
	movf	(sprintf@fval+2)^080h,w
	bcf	status, 5	;RP0=0, select bank0
	movwf	2+(?___ftadd)+03h
	fcall	___ftadd
	movf	(0+(?___ftadd)),w
	bsf	status, 5	;RP0=1, select bank1
	movwf	(sprintf@fval)^080h
	bcf	status, 5	;RP0=0, select bank0
	movf	(1+(?___ftadd)),w
	bsf	status, 5	;RP0=1, select bank1
	movwf	(sprintf@fval+1)^080h
	bcf	status, 5	;RP0=0, select bank0
	movf	(2+(?___ftadd)),w
	bsf	status, 5	;RP0=1, select bank1
	movwf	(sprintf@fval+2)^080h
	line	1119
	
l5313:	
	movf	(sprintf@exp+1)^080h,w
	xorlw	80h
	movwf	btemp+1
	movlw	(high(0Ah))^80h
	subwf	btemp+1,w
	skipz
	goto	u2615
	movlw	low(0Ah)
	subwf	(sprintf@exp)^080h,w
u2615:

	skipnc
	goto	u2611
	goto	u2610
u2611:
	goto	l5321
u2610:
	
l5315:	
	bsf	status, 5	;RP0=1, select bank1
	bcf	status, 6	;RP1=0, select bank1
	movf	(sprintf@fval+2)^080h,w
	iorwf	(sprintf@fval+1)^080h,w
	iorwf	(sprintf@fval)^080h,w
	skipnz
	goto	u2621
	goto	u2620
u2621:
	goto	l5337
u2620:
	
l5317:	
	movf	(sprintf@fval)^080h,w
	bcf	status, 5	;RP0=0, select bank0
	movwf	(?___fttol)
	bsf	status, 5	;RP0=1, select bank1
	movf	(sprintf@fval+1)^080h,w
	bcf	status, 5	;RP0=0, select bank0
	movwf	(?___fttol+1)
	bsf	status, 5	;RP0=1, select bank1
	movf	(sprintf@fval+2)^080h,w
	bcf	status, 5	;RP0=0, select bank0
	movwf	(?___fttol+2)
	fcall	___fttol
	movf	(3+(?___fttol)),w
	iorwf	(2+(?___fttol)),w
	iorwf	(1+(?___fttol)),w
	iorwf	(0+(?___fttol)),w
	skipz
	goto	u2631
	goto	u2630
u2631:
	goto	l5337
u2630:
	
l5319:	
	bsf	status, 5	;RP0=1, select bank1
	movf	(sprintf@exp+1)^080h,w
	xorlw	80h
	movwf	btemp+1
	movlw	(high(02h))^80h
	subwf	btemp+1,w
	skipz
	goto	u2645
	movlw	low(02h)
	subwf	(sprintf@exp)^080h,w
u2645:

	skipc
	goto	u2641
	goto	u2640
u2641:
	goto	l5337
u2640:
	line	1123
	
l5321:	
	bsf	status, 5	;RP0=1, select bank1
	bcf	status, 6	;RP1=0, select bank1
	movf	(sprintf@integ)^080h,w
	movwf	(?___ftge)
	movf	(sprintf@integ+1)^080h,w
	movwf	(?___ftge+1)
	movf	(sprintf@integ+2)^080h,w
	movwf	(?___ftge+2)
	movlw	0x70
	movwf	0+(?___ftge)+03h
	movlw	0x89
	movwf	1+(?___ftge)+03h
	movlw	0x40
	movwf	2+(?___ftge)+03h
	fcall	___ftge
	btfsc	status,0
	goto	u2651
	goto	u2650
u2651:
	goto	l5325
u2650:
	line	1124
	
l5323:	
	movlw	-9
	addwf	(sprintf@exp)^080h,f
	skipc
	decf	(sprintf@exp+1)^080h,f
	line	1125
	goto	l5327
	line	1126
	
l5325:	
	movlw	-8
	addwf	(sprintf@exp)^080h,f
	skipc
	decf	(sprintf@exp+1)^080h,f
	line	1128
	
l5327:	
	movf	(sprintf@exp)^080h,w
	fcall	_scale
	movf	(0+(?_scale)),w
	bsf	status, 5	;RP0=1, select bank1
	movwf	(sprintf@integ)^080h
	bcf	status, 5	;RP0=0, select bank0
	movf	(1+(?_scale)),w
	bsf	status, 5	;RP0=1, select bank1
	movwf	(sprintf@integ+1)^080h
	bcf	status, 5	;RP0=0, select bank0
	movf	(2+(?_scale)),w
	bsf	status, 5	;RP0=1, select bank1
	movwf	(sprintf@integ+2)^080h
	line	1129
	
l5331:	
	movf	(sprintf@fval)^080h,w
	movwf	(?__tdiv_to_l_)
	movf	(sprintf@fval+1)^080h,w
	movwf	(?__tdiv_to_l_+1)
	movf	(sprintf@fval+2)^080h,w
	movwf	(?__tdiv_to_l_+2)
	movf	(sprintf@integ)^080h,w
	movwf	0+(?__tdiv_to_l_)+03h
	movf	(sprintf@integ+1)^080h,w
	movwf	1+(?__tdiv_to_l_)+03h
	movf	(sprintf@integ+2)^080h,w
	movwf	2+(?__tdiv_to_l_)+03h
	fcall	__tdiv_to_l_
	movf	(3+(?__tdiv_to_l_)),w
	bsf	status, 5	;RP0=1, select bank1
	movwf	(_sprintf$1888+3)^080h
	movf	(2+(?__tdiv_to_l_)),w
	movwf	(_sprintf$1888+2)^080h
	movf	(1+(?__tdiv_to_l_)),w
	movwf	(_sprintf$1888+1)^080h
	movf	(0+(?__tdiv_to_l_)),w
	movwf	(_sprintf$1888)^080h

	
l5333:	
	movf	(_sprintf$1888+3)^080h,w
	movwf	(sprintf@_val+3)^080h
	movf	(_sprintf$1888+2)^080h,w
	movwf	(sprintf@_val+2)^080h
	movf	(_sprintf$1888+1)^080h,w
	movwf	(sprintf@_val+1)^080h
	movf	(_sprintf$1888)^080h,w
	movwf	(sprintf@_val)^080h

	line	1132
	
l5335:	
	clrf	(sprintf@fval)^080h
	clrf	(sprintf@fval+1)^080h
	clrf	(sprintf@fval+2)^080h
	line	1133
	goto	l5341
	line	1134
	
l5337:	
	bsf	status, 5	;RP0=1, select bank1
	bcf	status, 6	;RP1=0, select bank1
	movf	(sprintf@fval)^080h,w
	bcf	status, 5	;RP0=0, select bank0
	movwf	(?___fttol)
	bsf	status, 5	;RP0=1, select bank1
	movf	(sprintf@fval+1)^080h,w
	bcf	status, 5	;RP0=0, select bank0
	movwf	(?___fttol+1)
	bsf	status, 5	;RP0=1, select bank1
	movf	(sprintf@fval+2)^080h,w
	bcf	status, 5	;RP0=0, select bank0
	movwf	(?___fttol+2)
	fcall	___fttol
	movf	(3+(?___fttol)),w
	bsf	status, 5	;RP0=1, select bank1
	movwf	(sprintf@_val+3)^080h
	bcf	status, 5	;RP0=0, select bank0
	movf	(2+(?___fttol)),w
	bsf	status, 5	;RP0=1, select bank1
	movwf	(sprintf@_val+2)^080h
	bcf	status, 5	;RP0=0, select bank0
	movf	(1+(?___fttol)),w
	bsf	status, 5	;RP0=1, select bank1
	movwf	(sprintf@_val+1)^080h
	bcf	status, 5	;RP0=0, select bank0
	movf	(0+(?___fttol)),w
	bsf	status, 5	;RP0=1, select bank1
	movwf	(sprintf@_val)^080h

	line	1135
	movf	(sprintf@_val+3)^080h,w
	movwf	(?___lltoft+3)
	movf	(sprintf@_val+2)^080h,w
	movwf	(?___lltoft+2)
	movf	(sprintf@_val+1)^080h,w
	movwf	(?___lltoft+1)
	movf	(sprintf@_val)^080h,w
	movwf	(?___lltoft)

	fcall	___lltoft
	movf	(0+(?___lltoft)),w
	bcf	status, 5	;RP0=0, select bank0
	movwf	(?___ftsub)
	movf	(1+(?___lltoft)),w
	movwf	(?___ftsub+1)
	movf	(2+(?___lltoft)),w
	movwf	(?___ftsub+2)
	bsf	status, 5	;RP0=1, select bank1
	movf	(sprintf@fval)^080h,w
	bcf	status, 5	;RP0=0, select bank0
	movwf	0+(?___ftsub)+03h
	bsf	status, 5	;RP0=1, select bank1
	movf	(sprintf@fval+1)^080h,w
	bcf	status, 5	;RP0=0, select bank0
	movwf	1+(?___ftsub)+03h
	bsf	status, 5	;RP0=1, select bank1
	movf	(sprintf@fval+2)^080h,w
	bcf	status, 5	;RP0=0, select bank0
	movwf	2+(?___ftsub)+03h
	fcall	___ftsub
	movf	(0+(?___ftsub)),w
	bsf	status, 5	;RP0=1, select bank1
	movwf	(sprintf@fval)^080h
	bcf	status, 5	;RP0=0, select bank0
	movf	(1+(?___ftsub)),w
	bsf	status, 5	;RP0=1, select bank1
	movwf	(sprintf@fval+1)^080h
	bcf	status, 5	;RP0=0, select bank0
	movf	(2+(?___ftsub)),w
	bsf	status, 5	;RP0=1, select bank1
	movwf	(sprintf@fval+2)^080h
	line	1136
	
l5339:	
	clrf	(sprintf@exp)^080h
	clrf	(sprintf@exp+1)^080h
	line	1139
	
l5341:	
	clrf	(sprintf@c)^080h
	incf	(sprintf@c)^080h,f
	line	1140
	
l5347:	
	movf	(sprintf@c)^080h,w
	bcf	status, 5	;RP0=0, select bank0
	movwf	(??_sprintf+0)+0
	clrc
	rlf	(??_sprintf+0)+0,f
	clrc
	rlf	(??_sprintf+0)+0,w
	addlw	low((_dpowers-__stringbase))
	movwf	fsr0
	fcall	stringdir
	movwf	((??_sprintf+1)+0)
	fcall	stringdir
	movwf	((??_sprintf+1)+0+1)
	fcall	stringdir
	movwf	((??_sprintf+1)+0+2)
	fcall	stringdir
	movwf	((??_sprintf+1)+0+3)
	movf	3+(??_sprintf+1)+0,w
	bsf	status, 5	;RP0=1, select bank1
	subwf	(sprintf@_val+3)^080h,w
	skipz
	goto	u2665
	bcf	status, 5	;RP0=0, select bank0
	movf	2+(??_sprintf+1)+0,w
	bsf	status, 5	;RP0=1, select bank1
	subwf	(sprintf@_val+2)^080h,w
	skipz
	goto	u2665
	bcf	status, 5	;RP0=0, select bank0
	movf	1+(??_sprintf+1)+0,w
	bsf	status, 5	;RP0=1, select bank1
	subwf	(sprintf@_val+1)^080h,w
	skipz
	goto	u2665
	bcf	status, 5	;RP0=0, select bank0
	movf	0+(??_sprintf+1)+0,w
	bsf	status, 5	;RP0=1, select bank1
	subwf	(sprintf@_val)^080h,w
u2665:
	skipnc
	goto	u2661
	goto	u2660
u2661:
	goto	l5351
u2660:
	goto	l5355
	line	1139
	
l5351:	
	incf	(sprintf@c)^080h,f
	
l5353:	
	movf	(sprintf@c)^080h,w
	xorlw	0Ah
	skipz
	goto	u2671
	goto	u2670
u2671:
	goto	l5347
u2670:
	line	1189
	
l5355:	
	movf	(sprintf@flag)^080h,w
	andlw	03h
	btfsc	status,2
	goto	u2681
	goto	u2680
u2681:
	goto	l5365
u2680:
	line	1191
	
l5357:	
	movf	(sprintf@sp)^080h,w
	movwf	fsr0
	movlw	(02Dh)
	bcf	status, 7	;select IRP bank0
	movwf	indf
	
l5359:	
	bsf	status, 5	;RP0=1, select bank1
	incf	(sprintf@sp)^080h,f
	goto	l5365
	line	1201
	
l5361:	
	movlw	0Ah
	bcf	status, 5	;RP0=0, select bank0
	movwf	(?___llmod)
	clrf	(?___llmod+1)
	clrf	(?___llmod+2)
	clrf	(?___llmod+3)

	bsf	status, 5	;RP0=1, select bank1
	movf	(sprintf@c)^080h,w
	bcf	status, 5	;RP0=0, select bank0
	movwf	(??_sprintf+0)+0
	clrc
	rlf	(??_sprintf+0)+0,f
	clrc
	rlf	(??_sprintf+0)+0,w
	addlw	low((_dpowers-__stringbase))
	movwf	fsr0
	fcall	stringdir
	movwf	(?___lldiv)
	fcall	stringdir
	movwf	(?___lldiv+1)
	fcall	stringdir
	movwf	(?___lldiv+2)
	fcall	stringdir
	movwf	(?___lldiv+3)
	bsf	status, 5	;RP0=1, select bank1
	movf	(sprintf@_val+3)^080h,w
	movwf	3+(?___lldiv)+04h
	movf	(sprintf@_val+2)^080h,w
	movwf	2+(?___lldiv)+04h
	movf	(sprintf@_val+1)^080h,w
	movwf	1+(?___lldiv)+04h
	movf	(sprintf@_val)^080h,w
	movwf	0+(?___lldiv)+04h

	fcall	___lldiv
	movf	(3+(?___lldiv)),w
	bcf	status, 5	;RP0=0, select bank0
	movwf	3+(?___llmod)+04h
	movf	(2+(?___lldiv)),w
	movwf	2+(?___llmod)+04h
	movf	(1+(?___lldiv)),w
	movwf	1+(?___llmod)+04h
	movf	(0+(?___lldiv)),w
	movwf	0+(?___llmod)+04h

	fcall	___llmod
	movf	0+(((0+(?___llmod)))),w
	addlw	030h
	movwf	(??_sprintf+1)+0
	bsf	status, 5	;RP0=1, select bank1
	movf	(sprintf@sp)^080h,w
	movwf	fsr0
	bcf	status, 5	;RP0=0, select bank0
	movf	(??_sprintf+1)+0,w
	bcf	status, 7	;select IRP bank0
	movwf	indf
	goto	l5359
	line	1197
	
l5365:	
	decf	(sprintf@c)^080h,f
	incf	((sprintf@c)^080h),w
	skipz
	goto	u2691
	goto	u2690
u2691:
	goto	l5361
u2690:
	goto	l5373
	line	1205
	
l5367:	
	bsf	status, 5	;RP0=1, select bank1
	bcf	status, 6	;RP1=0, select bank1
	movf	(sprintf@sp)^080h,w
	movwf	fsr0
	movlw	(030h)
	bcf	status, 7	;select IRP bank0
	movwf	indf
	
l5369:	
	incf	(sprintf@sp)^080h,f
	line	1206
	
l5371:	
	movlw	-1
	addwf	(sprintf@exp)^080h,f
	skipc
	decf	(sprintf@exp+1)^080h,f
	line	1204
	
l5373:	
	movf	(sprintf@exp+1)^080h,w
	xorlw	80h
	movwf	btemp+1
	movlw	(high(01h))^80h
	subwf	btemp+1,w
	skipz
	goto	u2705
	movlw	low(01h)
	subwf	(sprintf@exp)^080h,w
u2705:

	skipnc
	goto	u2701
	goto	u2700
u2701:
	goto	l5367
u2700:
	line	1208
	
l5375:	
	bsf	status, 5	;RP0=1, select bank1
	bcf	status, 6	;RP1=0, select bank1
	movf	(sprintf@prec+1)^080h,w
	xorlw	80h
	movwf	btemp+1
	movlw	(high(09h))^80h
	subwf	btemp+1,w
	skipz
	goto	u2715
	movlw	low(09h)
	subwf	(sprintf@prec)^080h,w
u2715:

	skipc
	goto	u2711
	goto	u2710
u2711:
	goto	l5379
u2710:
	line	1209
	
l5377:	
	movlw	(08h)
	bsf	status, 5	;RP0=1, select bank1
	bcf	status, 6	;RP1=0, select bank1
	movwf	(sprintf@c)^080h
	goto	l1192
	line	1211
	
l5379:	
	bsf	status, 5	;RP0=1, select bank1
	bcf	status, 6	;RP1=0, select bank1
	movf	(sprintf@prec)^080h,w
	movwf	(sprintf@c)^080h
	
l1192:	
	line	1212
	movf	(sprintf@c)^080h,w
	bcf	status, 5	;RP0=0, select bank0
	movwf	(??_sprintf+0)+0
	clrf	(??_sprintf+0)+0+1
	btfsc	(??_sprintf+0)+0,7
	decf	(??_sprintf+0)+0+1,f
	movf	0+(??_sprintf+0)+0,w
	bsf	status, 5	;RP0=1, select bank1
	subwf	(sprintf@prec)^080h,f
	bcf	status, 5	;RP0=0, select bank0
	movf	1+(??_sprintf+0)+0,w
	bsf	status, 5	;RP0=1, select bank1
	skipc
	decf	(sprintf@prec+1)^080h,f
	subwf	(sprintf@prec+1)^080h,f
	line	1216
	movf	(sprintf@c)^080h,w
	skipz
	goto	u2720
	goto	l5385
u2720:
	line	1218
	
l5381:	
	movf	(sprintf@sp)^080h,w
	movwf	fsr0
	movlw	(02Eh)
	bcf	status, 7	;select IRP bank0
	movwf	indf
	
l5383:	
	incf	(sprintf@sp)^080h,f
	line	1224
	
l5385:	
	movf	(sprintf@c)^080h,w
	fcall	_scale
	movf	(0+(?_scale)),w
	movwf	0+(?___ftmul)+03h
	movf	(1+(?_scale)),w
	movwf	1+(?___ftmul)+03h
	movf	(2+(?_scale)),w
	movwf	2+(?___ftmul)+03h
	bsf	status, 5	;RP0=1, select bank1
	movf	(sprintf@fval)^080h,w
	bcf	status, 5	;RP0=0, select bank0
	movwf	(?___ftmul)
	bsf	status, 5	;RP0=1, select bank1
	movf	(sprintf@fval+1)^080h,w
	bcf	status, 5	;RP0=0, select bank0
	movwf	(?___ftmul+1)
	bsf	status, 5	;RP0=1, select bank1
	movf	(sprintf@fval+2)^080h,w
	bcf	status, 5	;RP0=0, select bank0
	movwf	(?___ftmul+2)
	fcall	___ftmul
	movf	(0+(?___ftmul)),w
	movwf	(?___fttol)
	movf	(1+(?___ftmul)),w
	movwf	(?___fttol+1)
	movf	(2+(?___ftmul)),w
	movwf	(?___fttol+2)
	fcall	___fttol
	movf	(3+(?___fttol)),w
	bsf	status, 5	;RP0=1, select bank1
	movwf	(sprintf@_val+3)^080h
	bcf	status, 5	;RP0=0, select bank0
	movf	(2+(?___fttol)),w
	bsf	status, 5	;RP0=1, select bank1
	movwf	(sprintf@_val+2)^080h
	bcf	status, 5	;RP0=0, select bank0
	movf	(1+(?___fttol)),w
	bsf	status, 5	;RP0=1, select bank1
	movwf	(sprintf@_val+1)^080h
	bcf	status, 5	;RP0=0, select bank0
	movf	(0+(?___fttol)),w
	bsf	status, 5	;RP0=1, select bank1
	movwf	(sprintf@_val)^080h

	line	1225
	goto	l5393
	line	1226
	
l5387:	
	movlw	0Ah
	bcf	status, 5	;RP0=0, select bank0
	movwf	(?___llmod)
	clrf	(?___llmod+1)
	clrf	(?___llmod+2)
	clrf	(?___llmod+3)

	bsf	status, 5	;RP0=1, select bank1
	movf	(sprintf@c)^080h,w
	bcf	status, 5	;RP0=0, select bank0
	movwf	(??_sprintf+0)+0
	clrc
	rlf	(??_sprintf+0)+0,f
	clrc
	rlf	(??_sprintf+0)+0,w
	addlw	low((_dpowers-__stringbase))
	movwf	fsr0
	fcall	stringdir
	movwf	(?___lldiv)
	fcall	stringdir
	movwf	(?___lldiv+1)
	fcall	stringdir
	movwf	(?___lldiv+2)
	fcall	stringdir
	movwf	(?___lldiv+3)
	bsf	status, 5	;RP0=1, select bank1
	movf	(sprintf@_val+3)^080h,w
	movwf	3+(?___lldiv)+04h
	movf	(sprintf@_val+2)^080h,w
	movwf	2+(?___lldiv)+04h
	movf	(sprintf@_val+1)^080h,w
	movwf	1+(?___lldiv)+04h
	movf	(sprintf@_val)^080h,w
	movwf	0+(?___lldiv)+04h

	fcall	___lldiv
	movf	(3+(?___lldiv)),w
	bcf	status, 5	;RP0=0, select bank0
	movwf	3+(?___llmod)+04h
	movf	(2+(?___lldiv)),w
	movwf	2+(?___llmod)+04h
	movf	(1+(?___lldiv)),w
	movwf	1+(?___llmod)+04h
	movf	(0+(?___lldiv)),w
	movwf	0+(?___llmod)+04h

	fcall	___llmod
	movf	0+(((0+(?___llmod)))),w
	addlw	030h
	movwf	(??_sprintf+1)+0
	bsf	status, 5	;RP0=1, select bank1
	movf	(sprintf@sp)^080h,w
	movwf	fsr0
	bcf	status, 5	;RP0=0, select bank0
	movf	(??_sprintf+1)+0,w
	bcf	status, 7	;select IRP bank0
	movwf	indf
	
l5389:	
	bsf	status, 5	;RP0=1, select bank1
	incf	(sprintf@sp)^080h,f
	line	1227
	
l5391:	
	movf	(sprintf@c)^080h,w
	bcf	status, 5	;RP0=0, select bank0
	movwf	(??_sprintf+0)+0
	clrc
	rlf	(??_sprintf+0)+0,f
	clrc
	rlf	(??_sprintf+0)+0,w
	addlw	low((_dpowers-__stringbase))
	movwf	fsr0
	fcall	stringdir
	movwf	(?___llmod)
	fcall	stringdir
	movwf	(?___llmod+1)
	fcall	stringdir
	movwf	(?___llmod+2)
	fcall	stringdir
	movwf	(?___llmod+3)
	bsf	status, 5	;RP0=1, select bank1
	movf	(sprintf@_val+3)^080h,w
	bcf	status, 5	;RP0=0, select bank0
	movwf	3+(?___llmod)+04h
	bsf	status, 5	;RP0=1, select bank1
	movf	(sprintf@_val+2)^080h,w
	bcf	status, 5	;RP0=0, select bank0
	movwf	2+(?___llmod)+04h
	bsf	status, 5	;RP0=1, select bank1
	movf	(sprintf@_val+1)^080h,w
	bcf	status, 5	;RP0=0, select bank0
	movwf	1+(?___llmod)+04h
	bsf	status, 5	;RP0=1, select bank1
	movf	(sprintf@_val)^080h,w
	bcf	status, 5	;RP0=0, select bank0
	movwf	0+(?___llmod)+04h

	fcall	___llmod
	movf	(3+(?___llmod)),w
	bsf	status, 5	;RP0=1, select bank1
	movwf	(sprintf@_val+3)^080h
	bcf	status, 5	;RP0=0, select bank0
	movf	(2+(?___llmod)),w
	bsf	status, 5	;RP0=1, select bank1
	movwf	(sprintf@_val+2)^080h
	bcf	status, 5	;RP0=0, select bank0
	movf	(1+(?___llmod)),w
	bsf	status, 5	;RP0=1, select bank1
	movwf	(sprintf@_val+1)^080h
	bcf	status, 5	;RP0=0, select bank0
	movf	(0+(?___llmod)),w
	bsf	status, 5	;RP0=1, select bank1
	movwf	(sprintf@_val)^080h

	line	1225
	
l5393:	
	decf	(sprintf@c)^080h,f
	incf	((sprintf@c)^080h),w
	skipz
	goto	u2731
	goto	u2730
u2731:
	goto	l5387
u2730:
	goto	l5401
	line	1231
	
l5395:	
	movf	(sprintf@sp)^080h,w
	movwf	fsr0
	movlw	(030h)
	bcf	status, 7	;select IRP bank0
	movwf	indf
	
l5397:	
	incf	(sprintf@sp)^080h,f
	line	1232
	
l5399:	
	movlw	-1
	addwf	(sprintf@prec)^080h,f
	skipc
	decf	(sprintf@prec+1)^080h,f
	line	1230
	
l5401:	
	movf	((sprintf@prec+1)^080h),w
	iorwf	((sprintf@prec)^080h),w
	skipz
	goto	u2741
	goto	u2740
u2741:
	goto	l5395
u2740:
	goto	l5409
	line	1433
	
l5403:	
	bsf	status, 5	;RP0=1, select bank1
	movf	(sprintf@flag)^080h,w
	andlw	03h
	btfsc	status,2
	goto	u2751
	goto	u2750
u2751:
	goto	l5409
u2750:
	line	1434
	
l5405:	
	movf	(sprintf@sp)^080h,w
	movwf	fsr0
	movlw	(02Dh)
	bcf	status, 7	;select IRP bank0
	movwf	indf
	goto	l5255
	line	540
	
l5409:	
	bcf	status, 5	;RP0=0, select bank0
	movf	(sprintf@f),w
	incf	(sprintf@f),f
	movwf	fsr0
	fcall	stringdir
	bsf	status, 5	;RP0=1, select bank1
	movwf	(sprintf@c)^080h
	movf	((sprintf@c)^080h),f
	skipz
	goto	u2761
	goto	u2760
u2761:
	goto	l5251
u2760:
	line	1530
	
l5411:	
	movf	(sprintf@sp)^080h,w
	movwf	fsr0
	bcf	status, 7	;select IRP bank0
	clrf	indf
	line	1533
	
l1202:	
	return
	opt stack 0
GLOBAL	__end_of_sprintf
	__end_of_sprintf:
;; =============== function _sprintf ends ============

	signat	_sprintf,4698
	global	_lcd_goto
psect	text515,local,class=CODE,delta=2
global __ptext515
__ptext515:

;; *************** function _lcd_goto *****************
;; Defined at:
;;		line 97 in file "C:\Users\petir\Documents\PIC_PROG\C_PuertoSerial\C_PuertoSerial_usart.c"
;; Parameters:    Size  Location     Type
;;  pos             1    wreg     unsigned char 
;; Auto vars:     Size  Location     Type
;;  pos             1    5[COMMON] unsigned char 
;; Return value:  Size  Location     Type
;;		None               void
;; Registers used:
;;		wreg, status,2, status,0, pclath, cstack
;; Tracked objects:
;;		On entry : 160/0
;;		On exit  : 160/0
;;		Unchanged: FFE9F/0
;; Data sizes:     COMMON   BANK0   BANK1   BANK3   BANK2
;;      Params:         0       0       0       0       0
;;      Locals:         1       0       0       0       0
;;      Temps:          0       0       0       0       0
;;      Totals:         1       0       0       0       0
;;Total ram usage:        1 bytes
;; Hardware stack levels used:    1
;; Hardware stack levels required when called:    3
;; This function calls:
;;		_lcd_write
;; This function is called by:
;;		_main
;; This function uses a non-reentrant model
;;
psect	text515
	file	"C:\Users\petir\Documents\PIC_PROG\C_PuertoSerial\C_PuertoSerial_usart.c"
	line	97
	global	__size_of_lcd_goto
	__size_of_lcd_goto	equ	__end_of_lcd_goto-_lcd_goto
	
_lcd_goto:	
	opt	stack 4
; Regs used in _lcd_goto: [wreg+status,2+status,0+pclath+cstack]
;lcd_goto@pos stored from wreg
	movwf	(lcd_goto@pos)
	line	98
	
l5245:	
;C_PuertoSerial_usart.c: 98: RA7=0;
	bcf	(47/8),(47)&7
	line	99
	
l5247:	
;C_PuertoSerial_usart.c: 99: lcd_write(0x80+pos);
	movf	(lcd_goto@pos),w
	addlw	080h
	fcall	_lcd_write
	line	100
	
l1082:	
	return
	opt stack 0
GLOBAL	__end_of_lcd_goto
	__end_of_lcd_goto:
;; =============== function _lcd_goto ends ============

	signat	_lcd_goto,4216
	global	_lcd_putch
psect	text516,local,class=CODE,delta=2
global __ptext516
__ptext516:

;; *************** function _lcd_putch *****************
;; Defined at:
;;		line 91 in file "C:\Users\petir\Documents\PIC_PROG\C_PuertoSerial\C_PuertoSerial_usart.c"
;; Parameters:    Size  Location     Type
;;  c               1    wreg     unsigned char 
;; Auto vars:     Size  Location     Type
;;  c               1    5[COMMON] unsigned char 
;; Return value:  Size  Location     Type
;;		None               void
;; Registers used:
;;		wreg, status,2, status,0, pclath, cstack
;; Tracked objects:
;;		On entry : 160/0
;;		On exit  : 160/0
;;		Unchanged: FFE9F/0
;; Data sizes:     COMMON   BANK0   BANK1   BANK3   BANK2
;;      Params:         0       0       0       0       0
;;      Locals:         1       0       0       0       0
;;      Temps:          0       0       0       0       0
;;      Totals:         1       0       0       0       0
;;Total ram usage:        1 bytes
;; Hardware stack levels used:    1
;; Hardware stack levels required when called:    3
;; This function calls:
;;		_lcd_write
;; This function is called by:
;;		_main
;; This function uses a non-reentrant model
;;
psect	text516
	file	"C:\Users\petir\Documents\PIC_PROG\C_PuertoSerial\C_PuertoSerial_usart.c"
	line	91
	global	__size_of_lcd_putch
	__size_of_lcd_putch	equ	__end_of_lcd_putch-_lcd_putch
	
_lcd_putch:	
	opt	stack 4
; Regs used in _lcd_putch: [wreg+status,2+status,0+pclath+cstack]
;lcd_putch@c stored from wreg
	movwf	(lcd_putch@c)
	line	92
	
l5241:	
;C_PuertoSerial_usart.c: 92: RA7=1;
	bsf	(47/8),(47)&7
	line	93
	
l5243:	
;C_PuertoSerial_usart.c: 93: lcd_write(c);
	movf	(lcd_putch@c),w
	fcall	_lcd_write
	line	94
	
l1079:	
	return
	opt stack 0
GLOBAL	__end_of_lcd_putch
	__end_of_lcd_putch:
;; =============== function _lcd_putch ends ============

	signat	_lcd_putch,4216
	global	_lcd_clear
psect	text517,local,class=CODE,delta=2
global __ptext517
__ptext517:

;; *************** function _lcd_clear *****************
;; Defined at:
;;		line 77 in file "C:\Users\petir\Documents\PIC_PROG\C_PuertoSerial\C_PuertoSerial_usart.c"
;; Parameters:    Size  Location     Type
;;		None
;; Auto vars:     Size  Location     Type
;;		None
;; Return value:  Size  Location     Type
;;		None               void
;; Registers used:
;;		wreg, status,2, status,0, pclath, cstack
;; Tracked objects:
;;		On entry : 17F/0
;;		On exit  : 11F/0
;;		Unchanged: FFE80/0
;; Data sizes:     COMMON   BANK0   BANK1   BANK3   BANK2
;;      Params:         0       0       0       0       0
;;      Locals:         0       0       0       0       0
;;      Temps:          0       0       0       0       0
;;      Totals:         0       0       0       0       0
;;Total ram usage:        0 bytes
;; Hardware stack levels used:    1
;; Hardware stack levels required when called:    3
;; This function calls:
;;		_lcd_write
;;		_pause
;; This function is called by:
;;		_main
;; This function uses a non-reentrant model
;;
psect	text517
	file	"C:\Users\petir\Documents\PIC_PROG\C_PuertoSerial\C_PuertoSerial_usart.c"
	line	77
	global	__size_of_lcd_clear
	__size_of_lcd_clear	equ	__end_of_lcd_clear-_lcd_clear
	
_lcd_clear:	
	opt	stack 4
; Regs used in _lcd_clear: [wreg+status,2+status,0+pclath+cstack]
	line	78
	
l5237:	
;C_PuertoSerial_usart.c: 78: RA7=0;
	bcf	(47/8),(47)&7
	line	79
	
l5239:	
;C_PuertoSerial_usart.c: 79: lcd_write(0x1);
	movlw	(01h)
	fcall	_lcd_write
	line	80
;C_PuertoSerial_usart.c: 80: pause(2);
	movlw	02h
	movwf	(?_pause)
	clrf	(?_pause+1)
	fcall	_pause
	line	81
	
l1070:	
	return
	opt stack 0
GLOBAL	__end_of_lcd_clear
	__end_of_lcd_clear:
;; =============== function _lcd_clear ends ============

	signat	_lcd_clear,88
	global	___ftsub
psect	text518,local,class=CODE,delta=2
global __ptext518
__ptext518:

;; *************** function ___ftsub *****************
;; Defined at:
;;		line 17 in file "C:\Program Files (x86)\HI-TECH Software\PICC\9.82\sources\ftsub.c"
;; Parameters:    Size  Location     Type
;;  f2              3   40[BANK0 ] float 
;;  f1              3   43[BANK0 ] float 
;; Auto vars:     Size  Location     Type
;;		None
;; Return value:  Size  Location     Type
;;                  3   40[BANK0 ] float 
;; Registers used:
;;		wreg, status,2, status,0, pclath, cstack
;; Tracked objects:
;;		On entry : 60/0
;;		On exit  : 60/0
;;		Unchanged: FFF9F/0
;; Data sizes:     COMMON   BANK0   BANK1   BANK3   BANK2
;;      Params:         0       6       0       0       0
;;      Locals:         0       0       0       0       0
;;      Temps:          0       0       0       0       0
;;      Totals:         0       6       0       0       0
;;Total ram usage:        6 bytes
;; Hardware stack levels used:    1
;; Hardware stack levels required when called:    2
;; This function calls:
;;		___ftadd
;; This function is called by:
;;		_sprintf
;; This function uses a non-reentrant model
;;
psect	text518
	file	"C:\Program Files (x86)\HI-TECH Software\PICC\9.82\sources\ftsub.c"
	line	17
	global	__size_of___ftsub
	__size_of___ftsub	equ	__end_of___ftsub-___ftsub
	
___ftsub:	
	opt	stack 4
; Regs used in ___ftsub: [wreg+status,2+status,0+pclath+cstack]
	line	18
	
l5231:	
	movlw	080h
	xorwf	(___ftsub@f2+2),f
	line	19
	
l5233:	
	movf	(___ftsub@f1),w
	movwf	(?___ftadd)
	movf	(___ftsub@f1+1),w
	movwf	(?___ftadd+1)
	movf	(___ftsub@f1+2),w
	movwf	(?___ftadd+2)
	movf	(___ftsub@f2),w
	movwf	0+(?___ftadd)+03h
	movf	(___ftsub@f2+1),w
	movwf	1+(?___ftadd)+03h
	movf	(___ftsub@f2+2),w
	movwf	2+(?___ftadd)+03h
	fcall	___ftadd
	movf	(0+(?___ftadd)),w
	movwf	(?___ftsub)
	movf	(1+(?___ftadd)),w
	movwf	(?___ftsub+1)
	movf	(2+(?___ftadd)),w
	movwf	(?___ftsub+2)
	line	20
	
l2278:	
	return
	opt stack 0
GLOBAL	__end_of___ftsub
	__end_of___ftsub:
;; =============== function ___ftsub ends ============

	signat	___ftsub,8315
	global	_scale
psect	text519,local,class=CODE,delta=2
global __ptext519
__ptext519:

;; *************** function _scale *****************
;; Defined at:
;;		line 422 in file "C:\Program Files (x86)\HI-TECH Software\PICC\9.82\lib\doprnt.c"
;; Parameters:    Size  Location     Type
;;  scl             1    wreg     char 
;; Auto vars:     Size  Location     Type
;;  scl             1   38[BANK0 ] char 
;; Return value:  Size  Location     Type
;;                  3   28[BANK0 ] char 
;; Registers used:
;;		wreg, fsr0l, fsr0h, status,2, status,0, pclath, cstack
;; Tracked objects:
;;		On entry : 60/20
;;		On exit  : 60/0
;;		Unchanged: FFF9F/0
;; Data sizes:     COMMON   BANK0   BANK1   BANK3   BANK2
;;      Params:         0       3       0       0       0
;;      Locals:         0       4       0       0       0
;;      Temps:          0       4       0       0       0
;;      Totals:         0      11       0       0       0
;;Total ram usage:       11 bytes
;; Hardware stack levels used:    1
;; Hardware stack levels required when called:    2
;; This function calls:
;;		___awmod
;;		___awdiv
;;		___ftmul
;;		___bmul
;; This function is called by:
;;		_sprintf
;; This function uses a non-reentrant model
;;
psect	text519
	file	"C:\Program Files (x86)\HI-TECH Software\PICC\9.82\sources\doprnt.c"
	line	422
	global	__size_of_scale
	__size_of_scale	equ	__end_of_scale-_scale
	
_scale:	
	opt	stack 4
; Regs used in _scale: [wreg-fsr0h+status,2+status,0+pclath+cstack]
;scale@scl stored from wreg
	line	424
	bcf	status, 5	;RP0=0, select bank0
	movwf	(scale@scl)
	
l5191:	
	btfss	(scale@scl),7
	goto	u2481
	goto	u2480
u2481:
	goto	l5213
u2480:
	line	425
	
l5193:	
	comf	(scale@scl),f
	incf	(scale@scl),f
	line	426
	
l5195:	
	movf	(scale@scl),w
	xorlw	80h
	addlw	-((06Eh)^80h)
	skipc
	goto	u2491
	goto	u2490
u2491:
	goto	l5203
u2490:
	line	427
	
l5197:	
	movlw	0Ah
	movwf	(?___awdiv)
	clrf	(?___awdiv+1)
	movf	(scale@scl),w
	movwf	0+(?___awmod)+02h
	clrf	1+(?___awmod)+02h
	btfsc	0+(?___awmod)+02h,7
	decf	1+(?___awmod)+02h,f
	movlw	064h
	movwf	(?___awmod)
	clrf	(?___awmod+1)
	fcall	___awmod
	movf	(1+(?___awmod)),w
	movwf	1+(?___awdiv)+02h
	movf	(0+(?___awmod)),w
	movwf	0+(?___awdiv)+02h
	fcall	___awdiv
	movf	(0+?___awdiv),w
	movwf	(??_scale+0)+0
	movf	(1+?___awdiv),w
	movwf	((??_scale+0)+0+1)
	movf	0+(??_scale+0)+0,w
	addwf	0+(??_scale+0)+0,w
	addwf	0+(??_scale+0)+0,w
	addlw	low((__npowers_-__stringbase)+01Bh)
	movwf	fsr0
	fcall	stringdir
	movwf	(?___ftmul)
	fcall	stringdir
	movwf	(?___ftmul+1)
	fcall	stringdir
	movwf	(?___ftmul+2)
	movlw	064h
	movwf	(?___awdiv)
	clrf	(?___awdiv+1)
	movf	(scale@scl),w
	movwf	0+(?___awdiv)+02h
	clrf	1+(?___awdiv)+02h
	btfsc	0+(?___awdiv)+02h,7
	decf	1+(?___awdiv)+02h,f
	fcall	___awdiv
	movf	(0+?___awdiv),w
	movwf	(??_scale+2)+0
	movf	(1+?___awdiv),w
	movwf	((??_scale+2)+0+1)
	movf	0+(??_scale+2)+0,w
	addwf	0+(??_scale+2)+0,w
	addwf	0+(??_scale+2)+0,w
	addlw	low((__npowers_-__stringbase)+036h)
	movwf	fsr0
	fcall	stringdir
	movwf	0+(?___ftmul)+03h
	fcall	stringdir
	movwf	1+(?___ftmul)+03h
	fcall	stringdir
	movwf	2+(?___ftmul)+03h
	fcall	___ftmul
	movf	(0+(?___ftmul)),w
	movwf	(_scale$2835)
	movf	(1+(?___ftmul)),w
	movwf	(_scale$2835+1)
	movf	(2+(?___ftmul)),w
	movwf	(_scale$2835+2)
	movlw	0Ah
	movwf	(?___awmod)
	clrf	(?___awmod+1)
	movf	(scale@scl),w
	movwf	0+(?___awmod)+02h
	clrf	1+(?___awmod)+02h
	btfsc	0+(?___awmod)+02h,7
	decf	1+(?___awmod)+02h,f
	fcall	___awmod
	movf	(0+?___awmod),w
	movwf	(??_scale+0)+0
	movf	(1+?___awmod),w
	movwf	((??_scale+0)+0+1)
	movf	0+(??_scale+0)+0,w
	addwf	0+(??_scale+0)+0,w
	addwf	0+(??_scale+0)+0,w
	addlw	low((__npowers_-__stringbase))
	movwf	fsr0
	fcall	stringdir
	movwf	(?___ftmul)
	fcall	stringdir
	movwf	(?___ftmul+1)
	fcall	stringdir
	movwf	(?___ftmul+2)
	movf	(_scale$2835),w
	movwf	0+(?___ftmul)+03h
	movf	(_scale$2835+1),w
	movwf	1+(?___ftmul)+03h
	movf	(_scale$2835+2),w
	movwf	2+(?___ftmul)+03h
	fcall	___ftmul
	movf	(0+(?___ftmul)),w
	movwf	(?_scale)
	movf	(1+(?___ftmul)),w
	movwf	(?_scale+1)
	movf	(2+(?___ftmul)),w
	movwf	(?_scale+2)
	goto	l1146
	line	428
	
l5203:	
	movf	(scale@scl),w
	xorlw	80h
	addlw	-((0Bh)^80h)
	skipc
	goto	u2501
	goto	u2500
u2501:
	goto	l5209
u2500:
	line	429
	
l5205:	
	movlw	0Ah
	movwf	(?___awmod)
	clrf	(?___awmod+1)
	movf	(scale@scl),w
	movwf	0+(?___awmod)+02h
	clrf	1+(?___awmod)+02h
	btfsc	0+(?___awmod)+02h,7
	decf	1+(?___awmod)+02h,f
	fcall	___awmod
	movf	(0+?___awmod),w
	movwf	(??_scale+0)+0
	movf	(1+?___awmod),w
	movwf	((??_scale+0)+0+1)
	movf	0+(??_scale+0)+0,w
	addwf	0+(??_scale+0)+0,w
	addwf	0+(??_scale+0)+0,w
	addlw	low((__npowers_-__stringbase))
	movwf	fsr0
	fcall	stringdir
	movwf	(?___ftmul)
	fcall	stringdir
	movwf	(?___ftmul+1)
	fcall	stringdir
	movwf	(?___ftmul+2)
	movlw	0Ah
	movwf	(?___awdiv)
	clrf	(?___awdiv+1)
	movf	(scale@scl),w
	movwf	0+(?___awdiv)+02h
	clrf	1+(?___awdiv)+02h
	btfsc	0+(?___awdiv)+02h,7
	decf	1+(?___awdiv)+02h,f
	fcall	___awdiv
	movf	(0+?___awdiv),w
	movwf	(??_scale+2)+0
	movf	(1+?___awdiv),w
	movwf	((??_scale+2)+0+1)
	movf	0+(??_scale+2)+0,w
	addwf	0+(??_scale+2)+0,w
	addwf	0+(??_scale+2)+0,w
	addlw	low((__npowers_-__stringbase)+01Bh)
	movwf	fsr0
	fcall	stringdir
	movwf	0+(?___ftmul)+03h
	fcall	stringdir
	movwf	1+(?___ftmul)+03h
	fcall	stringdir
	movwf	2+(?___ftmul)+03h
	fcall	___ftmul
	movf	(0+(?___ftmul)),w
	movwf	(?_scale)
	movf	(1+(?___ftmul)),w
	movwf	(?_scale+1)
	movf	(2+(?___ftmul)),w
	movwf	(?_scale+2)
	goto	l1146
	line	430
	
l5209:	
	movlw	(03h)
	movwf	(?___bmul)
	movf	(scale@scl),w
	fcall	___bmul
	addlw	low((__npowers_-__stringbase))
	movwf	fsr0
	fcall	stringdir
	movwf	(?_scale)
	fcall	stringdir
	movwf	(?_scale+1)
	fcall	stringdir
	movwf	(?_scale+2)
	goto	l1146
	line	432
	
l5213:	
	movf	(scale@scl),w
	xorlw	80h
	addlw	-((06Eh)^80h)
	skipc
	goto	u2511
	goto	u2510
u2511:
	goto	l5221
u2510:
	line	433
	
l5215:	
	movlw	0Ah
	movwf	(?___awdiv)
	clrf	(?___awdiv+1)
	movf	(scale@scl),w
	movwf	0+(?___awmod)+02h
	clrf	1+(?___awmod)+02h
	btfsc	0+(?___awmod)+02h,7
	decf	1+(?___awmod)+02h,f
	movlw	064h
	movwf	(?___awmod)
	clrf	(?___awmod+1)
	fcall	___awmod
	movf	(1+(?___awmod)),w
	movwf	1+(?___awdiv)+02h
	movf	(0+(?___awmod)),w
	movwf	0+(?___awdiv)+02h
	fcall	___awdiv
	movf	(0+?___awdiv),w
	movwf	(??_scale+0)+0
	movf	(1+?___awdiv),w
	movwf	((??_scale+0)+0+1)
	movf	0+(??_scale+0)+0,w
	addwf	0+(??_scale+0)+0,w
	addwf	0+(??_scale+0)+0,w
	addlw	low((__powers_-__stringbase)+01Bh)
	movwf	fsr0
	fcall	stringdir
	movwf	(?___ftmul)
	fcall	stringdir
	movwf	(?___ftmul+1)
	fcall	stringdir
	movwf	(?___ftmul+2)
	movlw	064h
	movwf	(?___awdiv)
	clrf	(?___awdiv+1)
	movf	(scale@scl),w
	movwf	0+(?___awdiv)+02h
	clrf	1+(?___awdiv)+02h
	btfsc	0+(?___awdiv)+02h,7
	decf	1+(?___awdiv)+02h,f
	fcall	___awdiv
	movf	(0+?___awdiv),w
	movwf	(??_scale+2)+0
	movf	(1+?___awdiv),w
	movwf	((??_scale+2)+0+1)
	movf	0+(??_scale+2)+0,w
	addwf	0+(??_scale+2)+0,w
	addwf	0+(??_scale+2)+0,w
	addlw	low((__powers_-__stringbase)+036h)
	movwf	fsr0
	fcall	stringdir
	movwf	0+(?___ftmul)+03h
	fcall	stringdir
	movwf	1+(?___ftmul)+03h
	fcall	stringdir
	movwf	2+(?___ftmul)+03h
	fcall	___ftmul
	movf	(0+(?___ftmul)),w
	movwf	(_scale$2835)
	movf	(1+(?___ftmul)),w
	movwf	(_scale$2835+1)
	movf	(2+(?___ftmul)),w
	movwf	(_scale$2835+2)
	movlw	0Ah
	movwf	(?___awmod)
	clrf	(?___awmod+1)
	movf	(scale@scl),w
	movwf	0+(?___awmod)+02h
	clrf	1+(?___awmod)+02h
	btfsc	0+(?___awmod)+02h,7
	decf	1+(?___awmod)+02h,f
	fcall	___awmod
	movf	(0+?___awmod),w
	movwf	(??_scale+0)+0
	movf	(1+?___awmod),w
	movwf	((??_scale+0)+0+1)
	movf	0+(??_scale+0)+0,w
	addwf	0+(??_scale+0)+0,w
	addwf	0+(??_scale+0)+0,w
	addlw	low((__powers_-__stringbase))
	movwf	fsr0
	fcall	stringdir
	movwf	(?___ftmul)
	fcall	stringdir
	movwf	(?___ftmul+1)
	fcall	stringdir
	movwf	(?___ftmul+2)
	movf	(_scale$2835),w
	movwf	0+(?___ftmul)+03h
	movf	(_scale$2835+1),w
	movwf	1+(?___ftmul)+03h
	movf	(_scale$2835+2),w
	movwf	2+(?___ftmul)+03h
	fcall	___ftmul
	movf	(0+(?___ftmul)),w
	movwf	(?_scale)
	movf	(1+(?___ftmul)),w
	movwf	(?_scale+1)
	movf	(2+(?___ftmul)),w
	movwf	(?_scale+2)
	goto	l1146
	line	434
	
l5221:	
	movf	(scale@scl),w
	xorlw	80h
	addlw	-((0Bh)^80h)
	skipc
	goto	u2521
	goto	u2520
u2521:
	goto	l5227
u2520:
	line	435
	
l5223:	
	movlw	0Ah
	movwf	(?___awmod)
	clrf	(?___awmod+1)
	movf	(scale@scl),w
	movwf	0+(?___awmod)+02h
	clrf	1+(?___awmod)+02h
	btfsc	0+(?___awmod)+02h,7
	decf	1+(?___awmod)+02h,f
	fcall	___awmod
	movf	(0+?___awmod),w
	movwf	(??_scale+0)+0
	movf	(1+?___awmod),w
	movwf	((??_scale+0)+0+1)
	movf	0+(??_scale+0)+0,w
	addwf	0+(??_scale+0)+0,w
	addwf	0+(??_scale+0)+0,w
	addlw	low((__powers_-__stringbase))
	movwf	fsr0
	fcall	stringdir
	movwf	(?___ftmul)
	fcall	stringdir
	movwf	(?___ftmul+1)
	fcall	stringdir
	movwf	(?___ftmul+2)
	movlw	0Ah
	movwf	(?___awdiv)
	clrf	(?___awdiv+1)
	movf	(scale@scl),w
	movwf	0+(?___awdiv)+02h
	clrf	1+(?___awdiv)+02h
	btfsc	0+(?___awdiv)+02h,7
	decf	1+(?___awdiv)+02h,f
	fcall	___awdiv
	movf	(0+?___awdiv),w
	movwf	(??_scale+2)+0
	movf	(1+?___awdiv),w
	movwf	((??_scale+2)+0+1)
	movf	0+(??_scale+2)+0,w
	addwf	0+(??_scale+2)+0,w
	addwf	0+(??_scale+2)+0,w
	addlw	low((__powers_-__stringbase)+01Bh)
	movwf	fsr0
	fcall	stringdir
	movwf	0+(?___ftmul)+03h
	fcall	stringdir
	movwf	1+(?___ftmul)+03h
	fcall	stringdir
	movwf	2+(?___ftmul)+03h
	fcall	___ftmul
	movf	(0+(?___ftmul)),w
	movwf	(?_scale)
	movf	(1+(?___ftmul)),w
	movwf	(?_scale+1)
	movf	(2+(?___ftmul)),w
	movwf	(?_scale+2)
	goto	l1146
	line	436
	
l5227:	
	movlw	(03h)
	movwf	(?___bmul)
	movf	(scale@scl),w
	fcall	___bmul
	addlw	low((__powers_-__stringbase))
	movwf	fsr0
	fcall	stringdir
	movwf	(?_scale)
	fcall	stringdir
	movwf	(?_scale+1)
	fcall	stringdir
	movwf	(?_scale+2)
	line	437
	
l1146:	
	return
	opt stack 0
GLOBAL	__end_of_scale
	__end_of_scale:
;; =============== function _scale ends ============

	signat	_scale,4219
	global	_fround
psect	text520,local,class=CODE,delta=2
global __ptext520
__ptext520:

;; *************** function _fround *****************
;; Defined at:
;;		line 406 in file "C:\Program Files (x86)\HI-TECH Software\PICC\9.82\lib\doprnt.c"
;; Parameters:    Size  Location     Type
;;  prec            1    wreg     unsigned char 
;; Auto vars:     Size  Location     Type
;;  prec            1   49[BANK0 ] unsigned char 
;; Return value:  Size  Location     Type
;;                  3   40[BANK0 ] unsigned char 
;; Registers used:
;;		wreg, fsr0l, fsr0h, status,2, status,0, pclath, cstack
;; Tracked objects:
;;		On entry : 160/20
;;		On exit  : 160/0
;;		Unchanged: FFE9F/0
;; Data sizes:     COMMON   BANK0   BANK1   BANK3   BANK2
;;      Params:         0       3       0       0       0
;;      Locals:         0       7       0       0       0
;;      Temps:          0       0       0       0       0
;;      Totals:         0      10       0       0       0
;;Total ram usage:       10 bytes
;; Hardware stack levels used:    1
;; Hardware stack levels required when called:    2
;; This function calls:
;;		___lbmod
;;		___bmul
;;		___lbdiv
;;		___ftmul
;; This function is called by:
;;		_sprintf
;; This function uses a non-reentrant model
;;
psect	text520
	file	"C:\Program Files (x86)\HI-TECH Software\PICC\9.82\sources\doprnt.c"
	line	406
	global	__size_of_fround
	__size_of_fround	equ	__end_of_fround-_fround
	
_fround:	
	opt	stack 4
; Regs used in _fround: [wreg-fsr0h+status,2+status,0+pclath+cstack]
;fround@prec stored from wreg
	line	409
	bcf	status, 5	;RP0=0, select bank0
	movwf	(fround@prec)
	
l5169:	
	movlw	(06Eh)
	subwf	(fround@prec),w
	skipc
	goto	u2461
	goto	u2460
u2461:
	goto	l5179
u2460:
	line	410
	
l5171:	
	movlw	(03h)
	movwf	(?___bmul)
	movlw	(0Ah)
	movwf	(?___lbdiv)
	movlw	(064h)
	movwf	(?___lbmod)
	movf	(fround@prec),w
	fcall	___lbmod
	fcall	___lbdiv
	fcall	___bmul
	addlw	low((__npowers_-__stringbase)+01Bh)
	movwf	fsr0
	fcall	stringdir
	movwf	(?___ftmul)
	fcall	stringdir
	movwf	(?___ftmul+1)
	fcall	stringdir
	movwf	(?___ftmul+2)
	movlw	(03h)
	movwf	(?___bmul)
	movlw	(064h)
	movwf	(?___lbdiv)
	movf	(fround@prec),w
	fcall	___lbdiv
	fcall	___bmul
	addlw	low((__npowers_-__stringbase)+036h)
	movwf	fsr0
	fcall	stringdir
	movwf	0+(?___ftmul)+03h
	fcall	stringdir
	movwf	1+(?___ftmul)+03h
	fcall	stringdir
	movwf	2+(?___ftmul)+03h
	fcall	___ftmul
	movf	(0+(?___ftmul)),w
	movwf	(_fround$2833)
	movf	(1+(?___ftmul)),w
	movwf	(_fround$2833+1)
	movf	(2+(?___ftmul)),w
	movwf	(_fround$2833+2)
	movlw	(03h)
	movwf	(?___bmul)
	movlw	(0Ah)
	movwf	(?___lbmod)
	movf	(fround@prec),w
	fcall	___lbmod
	fcall	___bmul
	addlw	low((__npowers_-__stringbase))
	movwf	fsr0
	fcall	stringdir
	movwf	(?___ftmul)
	fcall	stringdir
	movwf	(?___ftmul+1)
	fcall	stringdir
	movwf	(?___ftmul+2)
	movf	(_fround$2833),w
	movwf	0+(?___ftmul)+03h
	movf	(_fround$2833+1),w
	movwf	1+(?___ftmul)+03h
	movf	(_fround$2833+2),w
	movwf	2+(?___ftmul)+03h
	fcall	___ftmul
	movf	(0+(?___ftmul)),w
	movwf	(_fround$2834)
	movf	(1+(?___ftmul)),w
	movwf	(_fround$2834+1)
	movf	(2+(?___ftmul)),w
	movwf	(_fround$2834+2)
	
l5173:	
	movlw	0x0
	movwf	(?___ftmul)
	movlw	0x0
	movwf	(?___ftmul+1)
	movlw	0x3f
	movwf	(?___ftmul+2)
	movf	(_fround$2834),w
	movwf	0+(?___ftmul)+03h
	movf	(_fround$2834+1),w
	movwf	1+(?___ftmul)+03h
	movf	(_fround$2834+2),w
	movwf	2+(?___ftmul)+03h
	fcall	___ftmul
	movf	(0+(?___ftmul)),w
	movwf	(?_fround)
	movf	(1+(?___ftmul)),w
	movwf	(?_fround+1)
	movf	(2+(?___ftmul)),w
	movwf	(?_fround+2)
	goto	l1139
	line	411
	
l5179:	
	movlw	(0Bh)
	subwf	(fround@prec),w
	skipc
	goto	u2471
	goto	u2470
u2471:
	goto	l5187
u2470:
	line	412
	
l5181:	
	movlw	(03h)
	movwf	(?___bmul)
	movlw	(0Ah)
	movwf	(?___lbmod)
	movf	(fround@prec),w
	fcall	___lbmod
	fcall	___bmul
	addlw	low((__npowers_-__stringbase))
	movwf	fsr0
	fcall	stringdir
	movwf	(?___ftmul)
	fcall	stringdir
	movwf	(?___ftmul+1)
	fcall	stringdir
	movwf	(?___ftmul+2)
	movlw	(03h)
	movwf	(?___bmul)
	movlw	(0Ah)
	movwf	(?___lbdiv)
	movf	(fround@prec),w
	fcall	___lbdiv
	fcall	___bmul
	addlw	low((__npowers_-__stringbase)+01Bh)
	movwf	fsr0
	fcall	stringdir
	movwf	0+(?___ftmul)+03h
	fcall	stringdir
	movwf	1+(?___ftmul)+03h
	fcall	stringdir
	movwf	2+(?___ftmul)+03h
	fcall	___ftmul
	movf	(0+(?___ftmul)),w
	movwf	(_fround$2833)
	movf	(1+(?___ftmul)),w
	movwf	(_fround$2833+1)
	movf	(2+(?___ftmul)),w
	movwf	(_fround$2833+2)
	
l5183:	
	movlw	0x0
	movwf	(?___ftmul)
	movlw	0x0
	movwf	(?___ftmul+1)
	movlw	0x3f
	movwf	(?___ftmul+2)
	movf	(_fround$2833),w
	movwf	0+(?___ftmul)+03h
	movf	(_fround$2833+1),w
	movwf	1+(?___ftmul)+03h
	movf	(_fround$2833+2),w
	movwf	2+(?___ftmul)+03h
	fcall	___ftmul
	movf	(0+(?___ftmul)),w
	movwf	(?_fround)
	movf	(1+(?___ftmul)),w
	movwf	(?_fround+1)
	movf	(2+(?___ftmul)),w
	movwf	(?_fround+2)
	goto	l1139
	line	413
	
l5187:	
	movlw	0x0
	movwf	(?___ftmul)
	movlw	0x0
	movwf	(?___ftmul+1)
	movlw	0x3f
	movwf	(?___ftmul+2)
	movlw	(03h)
	movwf	(?___bmul)
	movf	(fround@prec),w
	fcall	___bmul
	addlw	low((__npowers_-__stringbase))
	movwf	fsr0
	fcall	stringdir
	movwf	0+(?___ftmul)+03h
	fcall	stringdir
	movwf	1+(?___ftmul)+03h
	fcall	stringdir
	movwf	2+(?___ftmul)+03h
	fcall	___ftmul
	movf	(0+(?___ftmul)),w
	movwf	(?_fround)
	movf	(1+(?___ftmul)),w
	movwf	(?_fround+1)
	movf	(2+(?___ftmul)),w
	movwf	(?_fround+2)
	line	414
	
l1139:	
	return
	opt stack 0
GLOBAL	__end_of_fround
	__end_of_fround:
;; =============== function _fround ends ============

	signat	_fround,4219
	global	_lcd_write
psect	text521,local,class=CODE,delta=2
global __ptext521
__ptext521:

;; *************** function _lcd_write *****************
;; Defined at:
;;		line 68 in file "C:\Users\petir\Documents\PIC_PROG\C_PuertoSerial\C_PuertoSerial_usart.c"
;; Parameters:    Size  Location     Type
;;  c               1    wreg     unsigned char 
;; Auto vars:     Size  Location     Type
;;  c               1    4[COMMON] unsigned char 
;; Return value:  Size  Location     Type
;;		None               void
;; Registers used:
;;		wreg, status,2, status,0, pclath, cstack
;; Tracked objects:
;;		On entry : 100/0
;;		On exit  : 160/0
;;		Unchanged: FFE9F/0
;; Data sizes:     COMMON   BANK0   BANK1   BANK3   BANK2
;;      Params:         0       0       0       0       0
;;      Locals:         1       0       0       0       0
;;      Temps:          0       0       0       0       0
;;      Totals:         1       0       0       0       0
;;Total ram usage:        1 bytes
;; Hardware stack levels used:    1
;; Hardware stack levels required when called:    2
;; This function calls:
;;		_pause
;; This function is called by:
;;		_lcd_clear
;;		_lcd_putch
;;		_lcd_goto
;;		_main
;; This function uses a non-reentrant model
;;
psect	text521
	file	"C:\Users\petir\Documents\PIC_PROG\C_PuertoSerial\C_PuertoSerial_usart.c"
	line	68
	global	__size_of_lcd_write
	__size_of_lcd_write	equ	__end_of_lcd_write-_lcd_write
	
_lcd_write:	
	opt	stack 4
; Regs used in _lcd_write: [wreg+status,2+status,0+pclath+cstack]
;lcd_write@c stored from wreg
	movwf	(lcd_write@c)
	line	69
	
l5155:	
;C_PuertoSerial_usart.c: 69: pause(1);
	clrf	(?_pause)
	incf	(?_pause),f
	clrf	(?_pause+1)
	fcall	_pause
	line	70
	
l5157:	
;C_PuertoSerial_usart.c: 70: PORTD=((c >> 4) & 0x0F);
	swapf	(lcd_write@c),w
	andlw	(0ffh shr 4) & 0ffh
	andlw	0Fh
	bcf	status, 5	;RP0=0, select bank0
	bcf	status, 6	;RP1=0, select bank0
	movwf	(8)	;volatile
	line	71
	
l5159:	
;C_PuertoSerial_usart.c: 71: ((RA6=1),(RA6=0));
	bsf	(46/8),(46)&7
	
l5161:	
	bcf	(46/8),(46)&7
	line	72
	
l5163:	
;C_PuertoSerial_usart.c: 72: PORTD=(c & 0x0F);
	movf	(lcd_write@c),w
	andlw	0Fh
	movwf	(8)	;volatile
	line	73
	
l5165:	
;C_PuertoSerial_usart.c: 73: ((RA6=1),(RA6=0));
	bsf	(46/8),(46)&7
	
l5167:	
	bcf	(46/8),(46)&7
	line	74
	
l1067:	
	return
	opt stack 0
GLOBAL	__end_of_lcd_write
	__end_of_lcd_write:
;; =============== function _lcd_write ends ============

	signat	_lcd_write,4216
	global	___lltoft
psect	text522,local,class=CODE,delta=2
global __ptext522
__ptext522:

;; *************** function ___lltoft *****************
;; Defined at:
;;		line 36 in file "C:\Program Files (x86)\HI-TECH Software\PICC\9.82\sources\lltoft.c"
;; Parameters:    Size  Location     Type
;;  c               4    8[COMMON] unsigned long 
;; Auto vars:     Size  Location     Type
;;  exp             1   12[COMMON] unsigned char 
;; Return value:  Size  Location     Type
;;                  3    8[COMMON] float 
;; Registers used:
;;		wreg, status,2, status,0, pclath, cstack
;; Tracked objects:
;;		On entry : 60/20
;;		On exit  : 60/20
;;		Unchanged: FFF9F/0
;; Data sizes:     COMMON   BANK0   BANK1   BANK3   BANK2
;;      Params:         4       0       0       0       0
;;      Locals:         1       0       0       0       0
;;      Temps:          0       0       0       0       0
;;      Totals:         5       0       0       0       0
;;Total ram usage:        5 bytes
;; Hardware stack levels used:    1
;; Hardware stack levels required when called:    1
;; This function calls:
;;		___ftpack
;; This function is called by:
;;		_sprintf
;; This function uses a non-reentrant model
;;
psect	text522
	file	"C:\Program Files (x86)\HI-TECH Software\PICC\9.82\sources\lltoft.c"
	line	36
	global	__size_of___lltoft
	__size_of___lltoft	equ	__end_of___lltoft-___lltoft
	
___lltoft:	
	opt	stack 5
; Regs used in ___lltoft: [wreg+status,2+status,0+pclath+cstack]
	line	38
	
l5145:	
	movlw	(08Eh)
	movwf	(___lltoft@exp)
	line	41
	goto	l5149
	line	42
	
l5147:	
	clrc
	rrf	(___lltoft@c+3),f
	rrf	(___lltoft@c+2),f
	rrf	(___lltoft@c+1),f
	rrf	(___lltoft@c),f
	line	43
	incf	(___lltoft@exp),f
	line	41
	
l5149:	
	movlw	high highword(-16777216)
	andwf	(___lltoft@c+3),w
	btfss	status,2
	goto	u2451
	goto	u2450
u2451:
	goto	l5147
u2450:
	line	45
	
l5151:	
	movf	(___lltoft@c),w
	movwf	(?___ftpack)
	movf	(___lltoft@c+1),w
	movwf	(?___ftpack+1)
	movf	(___lltoft@c+2),w
	movwf	(?___ftpack+2)
	movf	(___lltoft@exp),w
	movwf	0+(?___ftpack)+03h
	clrf	0+(?___ftpack)+04h
	fcall	___ftpack
	movf	(0+(?___ftpack)),w
	movwf	(?___lltoft)
	movf	(1+(?___ftpack)),w
	movwf	(?___lltoft+1)
	movf	(2+(?___ftpack)),w
	movwf	(?___lltoft+2)
	line	46
	
l2435:	
	return
	opt stack 0
GLOBAL	__end_of___lltoft
	__end_of___lltoft:
;; =============== function ___lltoft ends ============

	signat	___lltoft,4219
	global	___awtoft
psect	text523,local,class=CODE,delta=2
global __ptext523
__ptext523:

;; *************** function ___awtoft *****************
;; Defined at:
;;		line 33 in file "C:\Program Files (x86)\HI-TECH Software\PICC\9.82\sources\awtoft.c"
;; Parameters:    Size  Location     Type
;;  c               2    8[COMMON] int 
;; Auto vars:     Size  Location     Type
;;  sign            1   11[COMMON] unsigned char 
;; Return value:  Size  Location     Type
;;                  3    8[COMMON] float 
;; Registers used:
;;		wreg, status,2, status,0, pclath, cstack
;; Tracked objects:
;;		On entry : 60/20
;;		On exit  : 60/20
;;		Unchanged: FFF9F/0
;; Data sizes:     COMMON   BANK0   BANK1   BANK3   BANK2
;;      Params:         3       0       0       0       0
;;      Locals:         1       0       0       0       0
;;      Temps:          0       0       0       0       0
;;      Totals:         4       0       0       0       0
;;Total ram usage:        4 bytes
;; Hardware stack levels used:    1
;; Hardware stack levels required when called:    1
;; This function calls:
;;		___ftpack
;; This function is called by:
;;		_main
;; This function uses a non-reentrant model
;;
psect	text523
	file	"C:\Program Files (x86)\HI-TECH Software\PICC\9.82\sources\awtoft.c"
	line	33
	global	__size_of___awtoft
	__size_of___awtoft	equ	__end_of___awtoft-___awtoft
	
___awtoft:	
	opt	stack 6
; Regs used in ___awtoft: [wreg+status,2+status,0+pclath+cstack]
	line	36
	
l5133:	
	clrf	(___awtoft@sign)
	line	37
	
l5135:	
	btfss	(___awtoft@c+1),7
	goto	u2441
	goto	u2440
u2441:
	goto	l5141
u2440:
	line	38
	
l5137:	
	comf	(___awtoft@c),f
	comf	(___awtoft@c+1),f
	incf	(___awtoft@c),f
	skipnz
	incf	(___awtoft@c+1),f
	line	39
	
l5139:	
	clrf	(___awtoft@sign)
	incf	(___awtoft@sign),f
	line	41
	
l5141:	
	movf	(___awtoft@c),w
	movwf	(?___ftpack)
	movf	(___awtoft@c+1),w
	movwf	(?___ftpack+1)
	clrf	(?___ftpack+2)
	movlw	(08Eh)
	movwf	0+(?___ftpack)+03h
	movf	(___awtoft@sign),w
	movwf	0+(?___ftpack)+04h
	fcall	___ftpack
	movf	(0+(?___ftpack)),w
	movwf	(?___awtoft)
	movf	(1+(?___ftpack)),w
	movwf	(?___awtoft+1)
	movf	(2+(?___ftpack)),w
	movwf	(?___awtoft+2)
	line	42
	
l2332:	
	return
	opt stack 0
GLOBAL	__end_of___awtoft
	__end_of___awtoft:
;; =============== function ___awtoft ends ============

	signat	___awtoft,4219
	global	___ftmul
psect	text524,local,class=CODE,delta=2
global __ptext524
__ptext524:

;; *************** function ___ftmul *****************
;; Defined at:
;;		line 52 in file "C:\Program Files (x86)\HI-TECH Software\PICC\9.82\sources\ftmul.c"
;; Parameters:    Size  Location     Type
;;  f1              3   13[BANK0 ] float 
;;  f2              3   16[BANK0 ] float 
;; Auto vars:     Size  Location     Type
;;  f3_as_produc    3   23[BANK0 ] unsigned um
;;  sign            1   27[BANK0 ] unsigned char 
;;  cntr            1   26[BANK0 ] unsigned char 
;;  exp             1   22[BANK0 ] unsigned char 
;; Return value:  Size  Location     Type
;;                  3   13[BANK0 ] float 
;; Registers used:
;;		wreg, status,2, status,0, pclath, cstack
;; Tracked objects:
;;		On entry : 60/0
;;		On exit  : 60/0
;;		Unchanged: FFF9F/0
;; Data sizes:     COMMON   BANK0   BANK1   BANK3   BANK2
;;      Params:         0       6       0       0       0
;;      Locals:         0       6       0       0       0
;;      Temps:          0       3       0       0       0
;;      Totals:         0      15       0       0       0
;;Total ram usage:       15 bytes
;; Hardware stack levels used:    1
;; Hardware stack levels required when called:    1
;; This function calls:
;;		___ftpack
;; This function is called by:
;;		_main
;;		_fround
;;		_scale
;;		_sprintf
;; This function uses a non-reentrant model
;;
psect	text524
	file	"C:\Program Files (x86)\HI-TECH Software\PICC\9.82\sources\ftmul.c"
	line	52
	global	__size_of___ftmul
	__size_of___ftmul	equ	__end_of___ftmul-___ftmul
	
___ftmul:	
	opt	stack 4
; Regs used in ___ftmul: [wreg+status,2+status,0+pclath+cstack]
	line	56
	
l5077:	
	movf	(___ftmul@f1),w
	movwf	((??___ftmul+0)+0)
	movf	(___ftmul@f1+1),w
	movwf	((??___ftmul+0)+0+1)
	movf	(___ftmul@f1+2),w
	movwf	((??___ftmul+0)+0+2)
	clrc
	rlf	(??___ftmul+0)+1,w
	rlf	(??___ftmul+0)+2,w
	movwf	(___ftmul@exp)
	movf	((___ftmul@exp)),f
	skipz
	goto	u2361
	goto	u2360
u2361:
	goto	l5083
u2360:
	line	57
	
l5079:	
	clrf	(?___ftmul)
	clrf	(?___ftmul+1)
	clrf	(?___ftmul+2)
	goto	l2294
	line	58
	
l5083:	
	movf	(___ftmul@f2),w
	movwf	((??___ftmul+0)+0)
	movf	(___ftmul@f2+1),w
	movwf	((??___ftmul+0)+0+1)
	movf	(___ftmul@f2+2),w
	movwf	((??___ftmul+0)+0+2)
	clrc
	rlf	(??___ftmul+0)+1,w
	rlf	(??___ftmul+0)+2,w
	movwf	(___ftmul@sign)
	movf	((___ftmul@sign)),f
	skipz
	goto	u2371
	goto	u2370
u2371:
	goto	l5089
u2370:
	line	59
	
l5085:	
	clrf	(?___ftmul)
	clrf	(?___ftmul+1)
	clrf	(?___ftmul+2)
	goto	l2294
	line	60
	
l5089:	
	movf	(___ftmul@sign),w
	addlw	07Bh
	addwf	(___ftmul@exp),f
	line	61
	
l5091:	
	movf	0+(((___ftmul@f1))+2),w
	movwf	(___ftmul@sign)
	line	62
	
l5093:	
	movf	0+(((___ftmul@f2))+2),w
	xorwf	(___ftmul@sign),f
	line	63
	
l5095:	
	movlw	(080h)
	andwf	(___ftmul@sign),f
	line	64
	
l5097:	
	bsf	(___ftmul@f1)+(15/8),(15)&7
	line	66
	
l5099:	
	bsf	(___ftmul@f2)+(15/8),(15)&7
	line	67
	
l5101:	
	movlw	0FFh
	andwf	(___ftmul@f2),f
	movlw	0FFh
	andwf	(___ftmul@f2+1),f
	movlw	0
	andwf	(___ftmul@f2+2),f
	line	68
	
l5103:	
	clrf	(___ftmul@f3_as_product)
	clrf	(___ftmul@f3_as_product+1)
	clrf	(___ftmul@f3_as_product+2)
	line	69
	
l5105:	
	movlw	(07h)
	movwf	(___ftmul@cntr)
	line	71
	
l5107:	
	btfss	(___ftmul@f1),(0)&7
	goto	u2381
	goto	u2380
u2381:
	goto	l5111
u2380:
	line	72
	
l5109:	
	movf	(___ftmul@f2),w
	addwf	(___ftmul@f3_as_product),f
	movf	(___ftmul@f2+1),w
	clrz
	skipnc
	incf	(___ftmul@f2+1),w
	skipnz
	goto	u2391
	addwf	(___ftmul@f3_as_product+1),f
u2391:
	movf	(___ftmul@f2+2),w
	clrz
	skipnc
	incf	(___ftmul@f2+2),w
	skipnz
	goto	u2392
	addwf	(___ftmul@f3_as_product+2),f
u2392:

	line	73
	
l5111:	
	clrc
	rrf	(___ftmul@f1+2),f
	rrf	(___ftmul@f1+1),f
	rrf	(___ftmul@f1),f
	line	74
	
l5113:	
	clrc
	rlf	(___ftmul@f2),f
	rlf	(___ftmul@f2+1),f
	rlf	(___ftmul@f2+2),f
	line	75
	
l5115:	
	decfsz	(___ftmul@cntr),f
	goto	u2401
	goto	u2400
u2401:
	goto	l5107
u2400:
	line	76
	
l5117:	
	movlw	(09h)
	movwf	(___ftmul@cntr)
	line	78
	
l5119:	
	btfss	(___ftmul@f1),(0)&7
	goto	u2411
	goto	u2410
u2411:
	goto	l5123
u2410:
	line	79
	
l5121:	
	movf	(___ftmul@f2),w
	addwf	(___ftmul@f3_as_product),f
	movf	(___ftmul@f2+1),w
	clrz
	skipnc
	incf	(___ftmul@f2+1),w
	skipnz
	goto	u2421
	addwf	(___ftmul@f3_as_product+1),f
u2421:
	movf	(___ftmul@f2+2),w
	clrz
	skipnc
	incf	(___ftmul@f2+2),w
	skipnz
	goto	u2422
	addwf	(___ftmul@f3_as_product+2),f
u2422:

	line	80
	
l5123:	
	clrc
	rrf	(___ftmul@f1+2),f
	rrf	(___ftmul@f1+1),f
	rrf	(___ftmul@f1),f
	line	81
	
l5125:	
	clrc
	rrf	(___ftmul@f3_as_product+2),f
	rrf	(___ftmul@f3_as_product+1),f
	rrf	(___ftmul@f3_as_product),f
	line	82
	
l5127:	
	decfsz	(___ftmul@cntr),f
	goto	u2431
	goto	u2430
u2431:
	goto	l5119
u2430:
	line	83
	
l5129:	
	movf	(___ftmul@f3_as_product),w
	movwf	(?___ftpack)
	movf	(___ftmul@f3_as_product+1),w
	movwf	(?___ftpack+1)
	movf	(___ftmul@f3_as_product+2),w
	movwf	(?___ftpack+2)
	movf	(___ftmul@exp),w
	movwf	0+(?___ftpack)+03h
	movf	(___ftmul@sign),w
	movwf	0+(?___ftpack)+04h
	fcall	___ftpack
	movf	(0+(?___ftpack)),w
	movwf	(?___ftmul)
	movf	(1+(?___ftpack)),w
	movwf	(?___ftmul+1)
	movf	(2+(?___ftpack)),w
	movwf	(?___ftmul+2)
	line	84
	
l2294:	
	return
	opt stack 0
GLOBAL	__end_of___ftmul
	__end_of___ftmul:
;; =============== function ___ftmul ends ============

	signat	___ftmul,8315
	global	___ftadd
psect	text525,local,class=CODE,delta=2
global __ptext525
__ptext525:

;; *************** function ___ftadd *****************
;; Defined at:
;;		line 87 in file "C:\Program Files (x86)\HI-TECH Software\PICC\9.82\sources\ftadd.c"
;; Parameters:    Size  Location     Type
;;  f1              3   28[BANK0 ] float 
;;  f2              3   31[BANK0 ] float 
;; Auto vars:     Size  Location     Type
;;  exp1            1   39[BANK0 ] unsigned char 
;;  exp2            1   38[BANK0 ] unsigned char 
;;  sign            1   37[BANK0 ] unsigned char 
;; Return value:  Size  Location     Type
;;                  3   28[BANK0 ] float 
;; Registers used:
;;		wreg, status,2, status,0, pclath, cstack
;; Tracked objects:
;;		On entry : 60/0
;;		On exit  : 60/0
;;		Unchanged: FFF9F/0
;; Data sizes:     COMMON   BANK0   BANK1   BANK3   BANK2
;;      Params:         0       6       0       0       0
;;      Locals:         0       3       0       0       0
;;      Temps:          0       3       0       0       0
;;      Totals:         0      12       0       0       0
;;Total ram usage:       12 bytes
;; Hardware stack levels used:    1
;; Hardware stack levels required when called:    1
;; This function calls:
;;		___ftpack
;; This function is called by:
;;		_sprintf
;;		___ftsub
;; This function uses a non-reentrant model
;;
psect	text525
	file	"C:\Program Files (x86)\HI-TECH Software\PICC\9.82\sources\ftadd.c"
	line	87
	global	__size_of___ftadd
	__size_of___ftadd	equ	__end_of___ftadd-___ftadd
	
___ftadd:	
	opt	stack 4
; Regs used in ___ftadd: [wreg+status,2+status,0+pclath+cstack]
	line	90
	
l4999:	
	movf	(___ftadd@f1),w
	movwf	((??___ftadd+0)+0)
	movf	(___ftadd@f1+1),w
	movwf	((??___ftadd+0)+0+1)
	movf	(___ftadd@f1+2),w
	movwf	((??___ftadd+0)+0+2)
	clrc
	rlf	(??___ftadd+0)+1,w
	rlf	(??___ftadd+0)+2,w
	movwf	(___ftadd@exp1)
	line	91
	movf	(___ftadd@f2),w
	movwf	((??___ftadd+0)+0)
	movf	(___ftadd@f2+1),w
	movwf	((??___ftadd+0)+0+1)
	movf	(___ftadd@f2+2),w
	movwf	((??___ftadd+0)+0+2)
	clrc
	rlf	(??___ftadd+0)+1,w
	rlf	(??___ftadd+0)+2,w
	movwf	(___ftadd@exp2)
	line	92
	
l5001:	
	movf	(___ftadd@exp1),w
	skipz
	goto	u2160
	goto	l5007
u2160:
	
l5003:	
	movf	(___ftadd@exp2),w
	subwf	(___ftadd@exp1),w
	skipnc
	goto	u2171
	goto	u2170
u2171:
	goto	l5011
u2170:
	
l5005:	
	movf	(___ftadd@exp2),w
	movwf	(??___ftadd+0)+0
	movf	(___ftadd@exp1),w
	subwf	(??___ftadd+0)+0,f
	movlw	(019h)
	subwf	0+(??___ftadd+0)+0,w
	skipc
	goto	u2181
	goto	u2180
u2181:
	goto	l5011
u2180:
	line	93
	
l5007:	
	movf	(___ftadd@f2),w
	movwf	(?___ftadd)
	movf	(___ftadd@f2+1),w
	movwf	(?___ftadd+1)
	movf	(___ftadd@f2+2),w
	movwf	(?___ftadd+2)
	goto	l2242
	line	94
	
l5011:	
	movf	(___ftadd@exp2),w
	skipz
	goto	u2190
	goto	l2245
u2190:
	
l5013:	
	movf	(___ftadd@exp1),w
	subwf	(___ftadd@exp2),w
	skipnc
	goto	u2201
	goto	u2200
u2201:
	goto	l5017
u2200:
	
l5015:	
	movf	(___ftadd@exp1),w
	movwf	(??___ftadd+0)+0
	movf	(___ftadd@exp2),w
	subwf	(??___ftadd+0)+0,f
	movlw	(019h)
	subwf	0+(??___ftadd+0)+0,w
	skipc
	goto	u2211
	goto	u2210
u2211:
	goto	l5017
u2210:
	
l2245:	
	line	95
	goto	l2242
	line	96
	
l5017:	
	movlw	(06h)
	movwf	(___ftadd@sign)
	line	97
	
l5019:	
	btfss	(___ftadd@f1+2),(23)&7
	goto	u2221
	goto	u2220
u2221:
	goto	l2246
u2220:
	line	98
	
l5021:	
	bsf	(___ftadd@sign)+(7/8),(7)&7
	
l2246:	
	line	99
	btfss	(___ftadd@f2+2),(23)&7
	goto	u2231
	goto	u2230
u2231:
	goto	l2247
u2230:
	line	100
	
l5023:	
	bsf	(___ftadd@sign)+(6/8),(6)&7
	
l2247:	
	line	101
	bsf	(___ftadd@f1)+(15/8),(15)&7
	line	102
	
l5025:	
	movlw	0FFh
	andwf	(___ftadd@f1),f
	movlw	0FFh
	andwf	(___ftadd@f1+1),f
	movlw	0
	andwf	(___ftadd@f1+2),f
	line	103
	
l5027:	
	bsf	(___ftadd@f2)+(15/8),(15)&7
	line	104
	movlw	0FFh
	andwf	(___ftadd@f2),f
	movlw	0FFh
	andwf	(___ftadd@f2+1),f
	movlw	0
	andwf	(___ftadd@f2+2),f
	line	106
	movf	(___ftadd@exp2),w
	subwf	(___ftadd@exp1),w
	skipnc
	goto	u2241
	goto	u2240
u2241:
	goto	l5039
u2240:
	line	110
	
l5029:	
	clrc
	rlf	(___ftadd@f2),f
	rlf	(___ftadd@f2+1),f
	rlf	(___ftadd@f2+2),f
	line	111
	decf	(___ftadd@exp2),f
	line	112
	
l5031:	
	movf	(___ftadd@exp2),w
	xorwf	(___ftadd@exp1),w
	skipnz
	goto	u2251
	goto	u2250
u2251:
	goto	l5037
u2250:
	
l5033:	
	decf	(___ftadd@sign),f
	movf	((___ftadd@sign)),w
	andlw	07h
	btfss	status,2
	goto	u2261
	goto	u2260
u2261:
	goto	l5029
u2260:
	goto	l5037
	line	114
	
l5035:	
	clrc
	rrf	(___ftadd@f1+2),f
	rrf	(___ftadd@f1+1),f
	rrf	(___ftadd@f1),f
	line	115
	incf	(___ftadd@exp1),f
	line	113
	
l5037:	
	movf	(___ftadd@exp1),w
	xorwf	(___ftadd@exp2),w
	skipz
	goto	u2271
	goto	u2270
u2271:
	goto	l5035
u2270:
	goto	l2256
	line	117
	
l5039:	
	movf	(___ftadd@exp1),w
	subwf	(___ftadd@exp2),w
	skipnc
	goto	u2281
	goto	u2280
u2281:
	goto	l2256
u2280:
	line	121
	
l5041:	
	clrc
	rlf	(___ftadd@f1),f
	rlf	(___ftadd@f1+1),f
	rlf	(___ftadd@f1+2),f
	line	122
	decf	(___ftadd@exp1),f
	line	123
	
l5043:	
	movf	(___ftadd@exp2),w
	xorwf	(___ftadd@exp1),w
	skipnz
	goto	u2291
	goto	u2290
u2291:
	goto	l5049
u2290:
	
l5045:	
	decf	(___ftadd@sign),f
	movf	((___ftadd@sign)),w
	andlw	07h
	btfss	status,2
	goto	u2301
	goto	u2300
u2301:
	goto	l5041
u2300:
	goto	l5049
	line	125
	
l5047:	
	clrc
	rrf	(___ftadd@f2+2),f
	rrf	(___ftadd@f2+1),f
	rrf	(___ftadd@f2),f
	line	126
	incf	(___ftadd@exp2),f
	line	124
	
l5049:	
	movf	(___ftadd@exp1),w
	xorwf	(___ftadd@exp2),w
	skipz
	goto	u2311
	goto	u2310
u2311:
	goto	l5047
u2310:
	line	129
	
l2256:	
	btfss	(___ftadd@sign),(7)&7
	goto	u2321
	goto	u2320
u2321:
	goto	l5055
u2320:
	line	131
	
l5051:	
	movlw	0FFh
	xorwf	(___ftadd@f1),f
	movlw	0FFh
	xorwf	(___ftadd@f1+1),f
	movlw	0FFh
	xorwf	(___ftadd@f1+2),f
	line	132
	
l5053:	
	incf	(___ftadd@f1),f
	skipnz
	incf	(___ftadd@f1+1),f
	skipnz
	incf	(___ftadd@f1+2),f
	line	134
	
l5055:	
	btfss	(___ftadd@sign),(6)&7
	goto	u2331
	goto	u2330
u2331:
	goto	l5061
u2330:
	line	136
	
l5057:	
	movlw	0FFh
	xorwf	(___ftadd@f2),f
	movlw	0FFh
	xorwf	(___ftadd@f2+1),f
	movlw	0FFh
	xorwf	(___ftadd@f2+2),f
	line	137
	
l5059:	
	incf	(___ftadd@f2),f
	skipnz
	incf	(___ftadd@f2+1),f
	skipnz
	incf	(___ftadd@f2+2),f
	line	139
	
l5061:	
	clrf	(___ftadd@sign)
	line	140
	
l5063:	
	movf	(___ftadd@f1),w
	addwf	(___ftadd@f2),f
	movf	(___ftadd@f1+1),w
	clrz
	skipnc
	incf	(___ftadd@f1+1),w
	skipnz
	goto	u2341
	addwf	(___ftadd@f2+1),f
u2341:
	movf	(___ftadd@f1+2),w
	clrz
	skipnc
	incf	(___ftadd@f1+2),w
	skipnz
	goto	u2342
	addwf	(___ftadd@f2+2),f
u2342:

	line	141
	
l5065:	
	btfss	(___ftadd@f2+2),(23)&7
	goto	u2351
	goto	u2350
u2351:
	goto	l5073
u2350:
	line	142
	
l5067:	
	movlw	0FFh
	xorwf	(___ftadd@f2),f
	movlw	0FFh
	xorwf	(___ftadd@f2+1),f
	movlw	0FFh
	xorwf	(___ftadd@f2+2),f
	line	143
	
l5069:	
	incf	(___ftadd@f2),f
	skipnz
	incf	(___ftadd@f2+1),f
	skipnz
	incf	(___ftadd@f2+2),f
	line	144
	
l5071:	
	clrf	(___ftadd@sign)
	incf	(___ftadd@sign),f
	line	146
	
l5073:	
	movf	(___ftadd@f2),w
	movwf	(?___ftpack)
	movf	(___ftadd@f2+1),w
	movwf	(?___ftpack+1)
	movf	(___ftadd@f2+2),w
	movwf	(?___ftpack+2)
	movf	(___ftadd@exp1),w
	movwf	0+(?___ftpack)+03h
	movf	(___ftadd@sign),w
	movwf	0+(?___ftpack)+04h
	fcall	___ftpack
	movf	(0+(?___ftpack)),w
	movwf	(?___ftadd)
	movf	(1+(?___ftpack)),w
	movwf	(?___ftadd+1)
	movf	(2+(?___ftpack)),w
	movwf	(?___ftadd+2)
	line	148
	
l2242:	
	return
	opt stack 0
GLOBAL	__end_of___ftadd
	__end_of___ftadd:
;; =============== function ___ftadd ends ============

	signat	___ftadd,8315
	global	_pause
psect	text526,local,class=CODE,delta=2
global __ptext526
__ptext526:

;; *************** function _pause *****************
;; Defined at:
;;		line 20 in file "C:\Users\petir\Documents\PIC_PROG\C_PuertoSerial\C_PuertoSerial_usart.c"
;; Parameters:    Size  Location     Type
;;  msvalue         2    0[COMMON] unsigned short 
;; Auto vars:     Size  Location     Type
;;  x               2    2[COMMON] unsigned short 
;; Return value:  Size  Location     Type
;;		None               void
;; Registers used:
;;		wreg, status,2, status,0, pclath, cstack
;; Tracked objects:
;;		On entry : 0/0
;;		On exit  : 0/0
;;		Unchanged: FFF9F/0
;; Data sizes:     COMMON   BANK0   BANK1   BANK3   BANK2
;;      Params:         2       0       0       0       0
;;      Locals:         2       0       0       0       0
;;      Temps:          0       0       0       0       0
;;      Totals:         4       0       0       0       0
;;Total ram usage:        4 bytes
;; Hardware stack levels used:    1
;; Hardware stack levels required when called:    1
;; This function calls:
;;		_msecbase
;; This function is called by:
;;		_lcd_write
;;		_lcd_clear
;;		_main
;; This function uses a non-reentrant model
;;
psect	text526
	file	"C:\Users\petir\Documents\PIC_PROG\C_PuertoSerial\C_PuertoSerial_usart.c"
	line	20
	global	__size_of_pause
	__size_of_pause	equ	__end_of_pause-_pause
	
_pause:	
	opt	stack 4
; Regs used in _pause: [wreg+status,2+status,0+pclath+cstack]
	line	21
	
l4991:	
;C_PuertoSerial_usart.c: 21: for (unsigned short x=0; x<=msvalue; x++) msecbase();
	clrf	(pause@x)
	clrf	(pause@x+1)
	goto	l4997
	
l4993:	
	fcall	_msecbase
	
l4995:	
	incf	(pause@x),f
	skipnz
	incf	(pause@x+1),f
	
l4997:	
	movf	(pause@x+1),w
	subwf	(pause@msvalue+1),w
	skipz
	goto	u2155
	movf	(pause@x),w
	subwf	(pause@msvalue),w
u2155:
	skipnc
	goto	u2151
	goto	u2150
u2151:
	goto	l4993
u2150:
	line	22
	
l1064:	
	return
	opt stack 0
GLOBAL	__end_of_pause
	__end_of_pause:
;; =============== function _pause ends ============

	signat	_pause,4216
	global	___awmod
psect	text527,local,class=CODE,delta=2
global __ptext527
__ptext527:

;; *************** function ___awmod *****************
;; Defined at:
;;		line 5 in file "C:\Program Files (x86)\HI-TECH Software\PICC\9.82\sources\awmod.c"
;; Parameters:    Size  Location     Type
;;  divisor         2    0[COMMON] int 
;;  dividend        2    2[COMMON] int 
;; Auto vars:     Size  Location     Type
;;  sign            1    5[COMMON] unsigned char 
;;  counter         1    4[COMMON] unsigned char 
;; Return value:  Size  Location     Type
;;                  2    0[COMMON] int 
;; Registers used:
;;		wreg, status,2, status,0
;; Tracked objects:
;;		On entry : 60/0
;;		On exit  : 60/0
;;		Unchanged: FFF9F/0
;; Data sizes:     COMMON   BANK0   BANK1   BANK3   BANK2
;;      Params:         4       0       0       0       0
;;      Locals:         2       0       0       0       0
;;      Temps:          0       0       0       0       0
;;      Totals:         6       0       0       0       0
;;Total ram usage:        6 bytes
;; Hardware stack levels used:    1
;; This function calls:
;;		Nothing
;; This function is called by:
;;		_scale
;; This function uses a non-reentrant model
;;
psect	text527
	file	"C:\Program Files (x86)\HI-TECH Software\PICC\9.82\sources\awmod.c"
	line	5
	global	__size_of___awmod
	__size_of___awmod	equ	__end_of___awmod-___awmod
	
___awmod:	
	opt	stack 5
; Regs used in ___awmod: [wreg+status,2+status,0]
	line	8
	
l4955:	
	clrf	(___awmod@sign)
	line	9
	
l4957:	
	btfss	(___awmod@dividend+1),7
	goto	u2081
	goto	u2080
u2081:
	goto	l4963
u2080:
	line	10
	
l4959:	
	comf	(___awmod@dividend),f
	comf	(___awmod@dividend+1),f
	incf	(___awmod@dividend),f
	skipnz
	incf	(___awmod@dividend+1),f
	line	11
	
l4961:	
	clrf	(___awmod@sign)
	incf	(___awmod@sign),f
	line	13
	
l4963:	
	btfss	(___awmod@divisor+1),7
	goto	u2091
	goto	u2090
u2091:
	goto	l4967
u2090:
	line	14
	
l4965:	
	comf	(___awmod@divisor),f
	comf	(___awmod@divisor+1),f
	incf	(___awmod@divisor),f
	skipnz
	incf	(___awmod@divisor+1),f
	line	15
	
l4967:	
	movf	(___awmod@divisor+1),w
	iorwf	(___awmod@divisor),w
	skipnz
	goto	u2101
	goto	u2100
u2101:
	goto	l4983
u2100:
	line	16
	
l4969:	
	clrf	(___awmod@counter)
	incf	(___awmod@counter),f
	line	17
	goto	l4973
	line	18
	
l4971:	
	clrc
	rlf	(___awmod@divisor),f
	rlf	(___awmod@divisor+1),f
	line	19
	incf	(___awmod@counter),f
	line	17
	
l4973:	
	btfss	(___awmod@divisor+1),(15)&7
	goto	u2111
	goto	u2110
u2111:
	goto	l4971
u2110:
	line	22
	
l4975:	
	movf	(___awmod@divisor+1),w
	subwf	(___awmod@dividend+1),w
	skipz
	goto	u2125
	movf	(___awmod@divisor),w
	subwf	(___awmod@dividend),w
u2125:
	skipc
	goto	u2121
	goto	u2120
u2121:
	goto	l4979
u2120:
	line	23
	
l4977:	
	movf	(___awmod@divisor),w
	subwf	(___awmod@dividend),f
	movf	(___awmod@divisor+1),w
	skipc
	decf	(___awmod@dividend+1),f
	subwf	(___awmod@dividend+1),f
	line	24
	
l4979:	
	clrc
	rrf	(___awmod@divisor+1),f
	rrf	(___awmod@divisor),f
	line	25
	
l4981:	
	decfsz	(___awmod@counter),f
	goto	u2131
	goto	u2130
u2131:
	goto	l4975
u2130:
	line	27
	
l4983:	
	movf	(___awmod@sign),w
	skipz
	goto	u2140
	goto	l4987
u2140:
	line	28
	
l4985:	
	comf	(___awmod@dividend),f
	comf	(___awmod@dividend+1),f
	incf	(___awmod@dividend),f
	skipnz
	incf	(___awmod@dividend+1),f
	line	29
	
l4987:	
	movf	(___awmod@dividend+1),w
	movwf	(?___awmod+1)
	movf	(___awmod@dividend),w
	movwf	(?___awmod)
	line	30
	
l2413:	
	return
	opt stack 0
GLOBAL	__end_of___awmod
	__end_of___awmod:
;; =============== function ___awmod ends ============

	signat	___awmod,8314
	global	___lldiv
psect	text528,local,class=CODE,delta=2
global __ptext528
__ptext528:

;; *************** function ___lldiv *****************
;; Defined at:
;;		line 5 in file "C:\Program Files (x86)\HI-TECH Software\PICC\9.82\sources\lldiv.c"
;; Parameters:    Size  Location     Type
;;  divisor         4    0[COMMON] unsigned long 
;;  dividend        4    4[COMMON] unsigned long 
;; Auto vars:     Size  Location     Type
;;  quotient        4    8[COMMON] unsigned long 
;;  counter         1   12[COMMON] unsigned char 
;; Return value:  Size  Location     Type
;;                  4    0[COMMON] unsigned long 
;; Registers used:
;;		wreg, status,2, status,0
;; Tracked objects:
;;		On entry : 60/20
;;		On exit  : 60/20
;;		Unchanged: FFF9F/0
;; Data sizes:     COMMON   BANK0   BANK1   BANK3   BANK2
;;      Params:         8       0       0       0       0
;;      Locals:         5       0       0       0       0
;;      Temps:          0       0       0       0       0
;;      Totals:        13       0       0       0       0
;;Total ram usage:       13 bytes
;; Hardware stack levels used:    1
;; This function calls:
;;		Nothing
;; This function is called by:
;;		_sprintf
;; This function uses a non-reentrant model
;;
psect	text528
	file	"C:\Program Files (x86)\HI-TECH Software\PICC\9.82\sources\lldiv.c"
	line	5
	global	__size_of___lldiv
	__size_of___lldiv	equ	__end_of___lldiv-___lldiv
	
___lldiv:	
	opt	stack 6
; Regs used in ___lldiv: [wreg+status,2+status,0]
	line	9
	
l4929:	
	clrf	(___lldiv@quotient)
	clrf	(___lldiv@quotient+1)
	clrf	(___lldiv@quotient+2)
	clrf	(___lldiv@quotient+3)
	line	10
	
l4931:	
	movf	(___lldiv@divisor+3),w
	iorwf	(___lldiv@divisor+2),w
	iorwf	(___lldiv@divisor+1),w
	iorwf	(___lldiv@divisor),w
	skipnz
	goto	u2041
	goto	u2040
u2041:
	goto	l4951
u2040:
	line	11
	
l4933:	
	clrf	(___lldiv@counter)
	incf	(___lldiv@counter),f
	line	12
	goto	l4937
	line	13
	
l4935:	
	clrc
	rlf	(___lldiv@divisor),f
	rlf	(___lldiv@divisor+1),f
	rlf	(___lldiv@divisor+2),f
	rlf	(___lldiv@divisor+3),f
	line	14
	incf	(___lldiv@counter),f
	line	12
	
l4937:	
	btfss	(___lldiv@divisor+3),(31)&7
	goto	u2051
	goto	u2050
u2051:
	goto	l4935
u2050:
	line	17
	
l4939:	
	clrc
	rlf	(___lldiv@quotient),f
	rlf	(___lldiv@quotient+1),f
	rlf	(___lldiv@quotient+2),f
	rlf	(___lldiv@quotient+3),f
	line	18
	
l4941:	
	movf	(___lldiv@divisor+3),w
	subwf	(___lldiv@dividend+3),w
	skipz
	goto	u2065
	movf	(___lldiv@divisor+2),w
	subwf	(___lldiv@dividend+2),w
	skipz
	goto	u2065
	movf	(___lldiv@divisor+1),w
	subwf	(___lldiv@dividend+1),w
	skipz
	goto	u2065
	movf	(___lldiv@divisor),w
	subwf	(___lldiv@dividend),w
u2065:
	skipc
	goto	u2061
	goto	u2060
u2061:
	goto	l4947
u2060:
	line	19
	
l4943:	
	movf	(___lldiv@divisor),w
	subwf	(___lldiv@dividend),f
	movf	(___lldiv@divisor+1),w
	skipc
	incfsz	(___lldiv@divisor+1),w
	subwf	(___lldiv@dividend+1),f
	movf	(___lldiv@divisor+2),w
	skipc
	incfsz	(___lldiv@divisor+2),w
	subwf	(___lldiv@dividend+2),f
	movf	(___lldiv@divisor+3),w
	skipc
	incfsz	(___lldiv@divisor+3),w
	subwf	(___lldiv@dividend+3),f
	line	20
	
l4945:	
	bsf	(___lldiv@quotient)+(0/8),(0)&7
	line	22
	
l4947:	
	clrc
	rrf	(___lldiv@divisor+3),f
	rrf	(___lldiv@divisor+2),f
	rrf	(___lldiv@divisor+1),f
	rrf	(___lldiv@divisor),f
	line	23
	
l4949:	
	decfsz	(___lldiv@counter),f
	goto	u2071
	goto	u2070
u2071:
	goto	l4939
u2070:
	line	25
	
l4951:	
	movf	(___lldiv@quotient+3),w
	movwf	(?___lldiv+3)
	movf	(___lldiv@quotient+2),w
	movwf	(?___lldiv+2)
	movf	(___lldiv@quotient+1),w
	movwf	(?___lldiv+1)
	movf	(___lldiv@quotient),w
	movwf	(?___lldiv)

	line	26
	
l2374:	
	return
	opt stack 0
GLOBAL	__end_of___lldiv
	__end_of___lldiv:
;; =============== function ___lldiv ends ============

	signat	___lldiv,8316
	global	___ftge
psect	text529,local,class=CODE,delta=2
global __ptext529
__ptext529:

;; *************** function ___ftge *****************
;; Defined at:
;;		line 5 in file "C:\Program Files (x86)\HI-TECH Software\PICC\9.82\sources\ftge.c"
;; Parameters:    Size  Location     Type
;;  ff1             3    0[COMMON] float 
;;  ff2             3    3[COMMON] float 
;; Auto vars:     Size  Location     Type
;;		None
;; Return value:  Size  Location     Type
;;		None               void
;; Registers used:
;;		wreg, status,2, status,0
;; Tracked objects:
;;		On entry : 60/20
;;		On exit  : 60/20
;;		Unchanged: FFF9F/0
;; Data sizes:     COMMON   BANK0   BANK1   BANK3   BANK2
;;      Params:         6       0       0       0       0
;;      Locals:         0       0       0       0       0
;;      Temps:          0       0       0       0       0
;;      Totals:         6       0       0       0       0
;;Total ram usage:        6 bytes
;; Hardware stack levels used:    1
;; This function calls:
;;		Nothing
;; This function is called by:
;;		_sprintf
;; This function uses a non-reentrant model
;;
psect	text529
	file	"C:\Program Files (x86)\HI-TECH Software\PICC\9.82\sources\ftge.c"
	line	5
	global	__size_of___ftge
	__size_of___ftge	equ	__end_of___ftge-___ftge
	
___ftge:	
	opt	stack 6
; Regs used in ___ftge: [wreg+status,2+status,0]
	line	6
	
l4909:	
	btfss	(___ftge@ff1+2),(23)&7
	goto	u2011
	goto	u2010
u2011:
	goto	l4913
u2010:
	line	7
	
l4911:	
	movf	(___ftge@ff1),w
	sublw	0
	movwf	(___ftge@ff1)
	movf	(___ftge@ff1+1),w
	skipc
	incfsz	(___ftge@ff1+1),w
	sublw	0
	movwf	1+(___ftge@ff1)
	movf	(___ftge@ff1+2),w
	skipc
	incfsz	(___ftge@ff1+2),w
	sublw	080h
	movwf	2+(___ftge@ff1)
	line	8
	
l4913:	
	btfss	(___ftge@ff2+2),(23)&7
	goto	u2021
	goto	u2020
u2021:
	goto	l4917
u2020:
	line	9
	
l4915:	
	movf	(___ftge@ff2),w
	sublw	0
	movwf	(___ftge@ff2)
	movf	(___ftge@ff2+1),w
	skipc
	incfsz	(___ftge@ff2+1),w
	sublw	0
	movwf	1+(___ftge@ff2)
	movf	(___ftge@ff2+2),w
	skipc
	incfsz	(___ftge@ff2+2),w
	sublw	080h
	movwf	2+(___ftge@ff2)
	line	10
	
l4917:	
	movlw	080h
	xorwf	(___ftge@ff1+2),f
	line	11
	
l4919:	
	movlw	080h
	xorwf	(___ftge@ff2+2),f
	line	12
	
l4921:	
	movf	(___ftge@ff2+2),w
	subwf	(___ftge@ff1+2),w
	skipz
	goto	u2035
	movf	(___ftge@ff2+1),w
	subwf	(___ftge@ff1+1),w
	skipz
	goto	u2035
	movf	(___ftge@ff2),w
	subwf	(___ftge@ff1),w
u2035:
	skipnc
	goto	u2031
	goto	u2030
u2031:
	goto	l4925
u2030:
	
l4923:	
	clrc
	
	goto	l2364
	
l4925:	
	setc
	
	line	13
	
l2364:	
	return
	opt stack 0
GLOBAL	__end_of___ftge
	__end_of___ftge:
;; =============== function ___ftge ends ============

	signat	___ftge,8312
	global	___ftneg
psect	text530,local,class=CODE,delta=2
global __ptext530
__ptext530:

;; *************** function ___ftneg *****************
;; Defined at:
;;		line 16 in file "C:\Program Files (x86)\HI-TECH Software\PICC\9.82\sources\ftneg.c"
;; Parameters:    Size  Location     Type
;;  f1              3    0[COMMON] float 
;; Auto vars:     Size  Location     Type
;;		None
;; Return value:  Size  Location     Type
;;                  3    0[COMMON] float 
;; Registers used:
;;		wreg
;; Tracked objects:
;;		On entry : 160/20
;;		On exit  : 160/20
;;		Unchanged: FFE9F/0
;; Data sizes:     COMMON   BANK0   BANK1   BANK3   BANK2
;;      Params:         3       0       0       0       0
;;      Locals:         0       0       0       0       0
;;      Temps:          0       0       0       0       0
;;      Totals:         3       0       0       0       0
;;Total ram usage:        3 bytes
;; Hardware stack levels used:    1
;; This function calls:
;;		Nothing
;; This function is called by:
;;		_sprintf
;; This function uses a non-reentrant model
;;
psect	text530
	file	"C:\Program Files (x86)\HI-TECH Software\PICC\9.82\sources\ftneg.c"
	line	16
	global	__size_of___ftneg
	__size_of___ftneg	equ	__end_of___ftneg-___ftneg
	
___ftneg:	
	opt	stack 6
; Regs used in ___ftneg: [wreg]
	line	17
	
l4901:	
	movf	(___ftneg@f1+2),w
	iorwf	(___ftneg@f1+1),w
	iorwf	(___ftneg@f1),w
	skipnz
	goto	u2001
	goto	u2000
u2001:
	goto	l4905
u2000:
	line	18
	
l4903:	
	movlw	080h
	xorwf	(___ftneg@f1+2),f
	line	19
	
l4905:	
	line	20
	
l2359:	
	return
	opt stack 0
GLOBAL	__end_of___ftneg
	__end_of___ftneg:
;; =============== function ___ftneg ends ============

	signat	___ftneg,4219
	global	___llmod
psect	text531,local,class=CODE,delta=2
global __ptext531
__ptext531:

;; *************** function ___llmod *****************
;; Defined at:
;;		line 5 in file "C:\Program Files (x86)\HI-TECH Software\PICC\9.82\sources\llmod.c"
;; Parameters:    Size  Location     Type
;;  divisor         4    0[BANK0 ] unsigned long 
;;  dividend        4    4[BANK0 ] unsigned long 
;; Auto vars:     Size  Location     Type
;;  counter         1   13[COMMON] unsigned char 
;; Return value:  Size  Location     Type
;;                  4    0[BANK0 ] unsigned long 
;; Registers used:
;;		wreg, status,2, status,0
;; Tracked objects:
;;		On entry : 60/0
;;		On exit  : 60/0
;;		Unchanged: FFF9F/0
;; Data sizes:     COMMON   BANK0   BANK1   BANK3   BANK2
;;      Params:         0       8       0       0       0
;;      Locals:         1       0       0       0       0
;;      Temps:          0       0       0       0       0
;;      Totals:         1       8       0       0       0
;;Total ram usage:        9 bytes
;; Hardware stack levels used:    1
;; This function calls:
;;		Nothing
;; This function is called by:
;;		_sprintf
;; This function uses a non-reentrant model
;;
psect	text531
	file	"C:\Program Files (x86)\HI-TECH Software\PICC\9.82\sources\llmod.c"
	line	5
	global	__size_of___llmod
	__size_of___llmod	equ	__end_of___llmod-___llmod
	
___llmod:	
	opt	stack 6
; Regs used in ___llmod: [wreg+status,2+status,0]
	line	8
	
l4881:	
	movf	(___llmod@divisor+3),w
	iorwf	(___llmod@divisor+2),w
	iorwf	(___llmod@divisor+1),w
	iorwf	(___llmod@divisor),w
	skipnz
	goto	u1961
	goto	u1960
u1961:
	goto	l4897
u1960:
	line	9
	
l4883:	
	clrf	(___llmod@counter)
	incf	(___llmod@counter),f
	line	10
	goto	l4887
	line	11
	
l4885:	
	clrc
	rlf	(___llmod@divisor),f
	rlf	(___llmod@divisor+1),f
	rlf	(___llmod@divisor+2),f
	rlf	(___llmod@divisor+3),f
	line	12
	incf	(___llmod@counter),f
	line	10
	
l4887:	
	btfss	(___llmod@divisor+3),(31)&7
	goto	u1971
	goto	u1970
u1971:
	goto	l4885
u1970:
	line	15
	
l4889:	
	movf	(___llmod@divisor+3),w
	subwf	(___llmod@dividend+3),w
	skipz
	goto	u1985
	movf	(___llmod@divisor+2),w
	subwf	(___llmod@dividend+2),w
	skipz
	goto	u1985
	movf	(___llmod@divisor+1),w
	subwf	(___llmod@dividend+1),w
	skipz
	goto	u1985
	movf	(___llmod@divisor),w
	subwf	(___llmod@dividend),w
u1985:
	skipc
	goto	u1981
	goto	u1980
u1981:
	goto	l4893
u1980:
	line	16
	
l4891:	
	movf	(___llmod@divisor),w
	subwf	(___llmod@dividend),f
	movf	(___llmod@divisor+1),w
	skipc
	incfsz	(___llmod@divisor+1),w
	subwf	(___llmod@dividend+1),f
	movf	(___llmod@divisor+2),w
	skipc
	incfsz	(___llmod@divisor+2),w
	subwf	(___llmod@dividend+2),f
	movf	(___llmod@divisor+3),w
	skipc
	incfsz	(___llmod@divisor+3),w
	subwf	(___llmod@dividend+3),f
	line	17
	
l4893:	
	clrc
	rrf	(___llmod@divisor+3),f
	rrf	(___llmod@divisor+2),f
	rrf	(___llmod@divisor+1),f
	rrf	(___llmod@divisor),f
	line	18
	
l4895:	
	decfsz	(___llmod@counter),f
	goto	u1991
	goto	u1990
u1991:
	goto	l4889
u1990:
	line	20
	
l4897:	
	movf	(___llmod@dividend+3),w
	movwf	(?___llmod+3)
	movf	(___llmod@dividend+2),w
	movwf	(?___llmod+2)
	movf	(___llmod@dividend+1),w
	movwf	(?___llmod+1)
	movf	(___llmod@dividend),w
	movwf	(?___llmod)

	line	21
	
l2355:	
	return
	opt stack 0
GLOBAL	__end_of___llmod
	__end_of___llmod:
;; =============== function ___llmod ends ============

	signat	___llmod,8316
	global	___awdiv
psect	text532,local,class=CODE,delta=2
global __ptext532
__ptext532:

;; *************** function ___awdiv *****************
;; Defined at:
;;		line 5 in file "C:\Program Files (x86)\HI-TECH Software\PICC\9.82\sources\awdiv.c"
;; Parameters:    Size  Location     Type
;;  divisor         2    6[COMMON] int 
;;  dividend        2    8[COMMON] int 
;; Auto vars:     Size  Location     Type
;;  quotient        2   12[COMMON] int 
;;  sign            1   11[COMMON] unsigned char 
;;  counter         1   10[COMMON] unsigned char 
;; Return value:  Size  Location     Type
;;                  2    6[COMMON] int 
;; Registers used:
;;		wreg, status,2, status,0
;; Tracked objects:
;;		On entry : 40/20
;;		On exit  : 40/20
;;		Unchanged: FFFBF/0
;; Data sizes:     COMMON   BANK0   BANK1   BANK3   BANK2
;;      Params:         4       0       0       0       0
;;      Locals:         4       0       0       0       0
;;      Temps:          0       0       0       0       0
;;      Totals:         8       0       0       0       0
;;Total ram usage:        8 bytes
;; Hardware stack levels used:    1
;; This function calls:
;;		Nothing
;; This function is called by:
;;		_scale
;;		_sprintf
;; This function uses a non-reentrant model
;;
psect	text532
	file	"C:\Program Files (x86)\HI-TECH Software\PICC\9.82\sources\awdiv.c"
	line	5
	global	__size_of___awdiv
	__size_of___awdiv	equ	__end_of___awdiv-___awdiv
	
___awdiv:	
	opt	stack 5
; Regs used in ___awdiv: [wreg+status,2+status,0]
	line	9
	
l4837:	
	clrf	(___awdiv@sign)
	line	10
	
l4839:	
	btfss	(___awdiv@divisor+1),7
	goto	u1891
	goto	u1890
u1891:
	goto	l4845
u1890:
	line	11
	
l4841:	
	comf	(___awdiv@divisor),f
	comf	(___awdiv@divisor+1),f
	incf	(___awdiv@divisor),f
	skipnz
	incf	(___awdiv@divisor+1),f
	line	12
	
l4843:	
	clrf	(___awdiv@sign)
	incf	(___awdiv@sign),f
	line	14
	
l4845:	
	btfss	(___awdiv@dividend+1),7
	goto	u1901
	goto	u1900
u1901:
	goto	l4851
u1900:
	line	15
	
l4847:	
	comf	(___awdiv@dividend),f
	comf	(___awdiv@dividend+1),f
	incf	(___awdiv@dividend),f
	skipnz
	incf	(___awdiv@dividend+1),f
	line	16
	
l4849:	
	movlw	(01h)
	xorwf	(___awdiv@sign),f
	line	18
	
l4851:	
	clrf	(___awdiv@quotient)
	clrf	(___awdiv@quotient+1)
	line	19
	
l4853:	
	movf	(___awdiv@divisor+1),w
	iorwf	(___awdiv@divisor),w
	skipnz
	goto	u1911
	goto	u1910
u1911:
	goto	l4873
u1910:
	line	20
	
l4855:	
	clrf	(___awdiv@counter)
	incf	(___awdiv@counter),f
	line	21
	goto	l4859
	line	22
	
l4857:	
	clrc
	rlf	(___awdiv@divisor),f
	rlf	(___awdiv@divisor+1),f
	line	23
	incf	(___awdiv@counter),f
	line	21
	
l4859:	
	btfss	(___awdiv@divisor+1),(15)&7
	goto	u1921
	goto	u1920
u1921:
	goto	l4857
u1920:
	line	26
	
l4861:	
	clrc
	rlf	(___awdiv@quotient),f
	rlf	(___awdiv@quotient+1),f
	line	27
	
l4863:	
	movf	(___awdiv@divisor+1),w
	subwf	(___awdiv@dividend+1),w
	skipz
	goto	u1935
	movf	(___awdiv@divisor),w
	subwf	(___awdiv@dividend),w
u1935:
	skipc
	goto	u1931
	goto	u1930
u1931:
	goto	l4869
u1930:
	line	28
	
l4865:	
	movf	(___awdiv@divisor),w
	subwf	(___awdiv@dividend),f
	movf	(___awdiv@divisor+1),w
	skipc
	decf	(___awdiv@dividend+1),f
	subwf	(___awdiv@dividend+1),f
	line	29
	
l4867:	
	bsf	(___awdiv@quotient)+(0/8),(0)&7
	line	31
	
l4869:	
	clrc
	rrf	(___awdiv@divisor+1),f
	rrf	(___awdiv@divisor),f
	line	32
	
l4871:	
	decfsz	(___awdiv@counter),f
	goto	u1941
	goto	u1940
u1941:
	goto	l4861
u1940:
	line	34
	
l4873:	
	movf	(___awdiv@sign),w
	skipz
	goto	u1950
	goto	l4877
u1950:
	line	35
	
l4875:	
	comf	(___awdiv@quotient),f
	comf	(___awdiv@quotient+1),f
	incf	(___awdiv@quotient),f
	skipnz
	incf	(___awdiv@quotient+1),f
	line	36
	
l4877:	
	movf	(___awdiv@quotient+1),w
	movwf	(?___awdiv+1)
	movf	(___awdiv@quotient),w
	movwf	(?___awdiv)
	line	37
	
l2345:	
	return
	opt stack 0
GLOBAL	__end_of___awdiv
	__end_of___awdiv:
;; =============== function ___awdiv ends ============

	signat	___awdiv,8314
	global	___fttol
psect	text533,local,class=CODE,delta=2
global __ptext533
__ptext533:

;; *************** function ___fttol *****************
;; Defined at:
;;		line 45 in file "C:\Program Files (x86)\HI-TECH Software\PICC\9.82\sources\fttol.c"
;; Parameters:    Size  Location     Type
;;  f1              3    0[BANK0 ] float 
;; Auto vars:     Size  Location     Type
;;  lval            4    8[BANK0 ] unsigned long 
;;  exp1            1   12[BANK0 ] unsigned char 
;;  sign1           1    7[BANK0 ] unsigned char 
;; Return value:  Size  Location     Type
;;                  4    0[BANK0 ] long 
;; Registers used:
;;		wreg, status,2, status,0
;; Tracked objects:
;;		On entry : 60/0
;;		On exit  : 60/0
;;		Unchanged: FFF9F/0
;; Data sizes:     COMMON   BANK0   BANK1   BANK3   BANK2
;;      Params:         0       4       0       0       0
;;      Locals:         0       6       0       0       0
;;      Temps:          0       3       0       0       0
;;      Totals:         0      13       0       0       0
;;Total ram usage:       13 bytes
;; Hardware stack levels used:    1
;; This function calls:
;;		Nothing
;; This function is called by:
;;		_sprintf
;; This function uses a non-reentrant model
;;
psect	text533
	file	"C:\Program Files (x86)\HI-TECH Software\PICC\9.82\sources\fttol.c"
	line	45
	global	__size_of___fttol
	__size_of___fttol	equ	__end_of___fttol-___fttol
	
___fttol:	
	opt	stack 6
; Regs used in ___fttol: [wreg+status,2+status,0]
	line	49
	
l4799:	
	movf	(___fttol@f1),w
	movwf	((??___fttol+0)+0)
	movf	(___fttol@f1+1),w
	movwf	((??___fttol+0)+0+1)
	movf	(___fttol@f1+2),w
	movwf	((??___fttol+0)+0+2)
	clrc
	rlf	(??___fttol+0)+1,w
	rlf	(??___fttol+0)+2,w
	movwf	(___fttol@exp1)
	movf	((___fttol@exp1)),f
	skipz
	goto	u1811
	goto	u1810
u1811:
	goto	l4803
u1810:
	line	50
	
l4801:	
	clrf	(?___fttol)
	clrf	(?___fttol+1)
	clrf	(?___fttol+2)
	clrf	(?___fttol+3)
	goto	l2305
	line	51
	
l4803:	
	movf	(___fttol@f1),w
	movwf	((??___fttol+0)+0)
	movf	(___fttol@f1+1),w
	movwf	((??___fttol+0)+0+1)
	movf	(___fttol@f1+2),w
	movwf	((??___fttol+0)+0+2)
	movlw	017h
u1825:
	clrc
	rrf	(??___fttol+0)+2,f
	rrf	(??___fttol+0)+1,f
	rrf	(??___fttol+0)+0,f
u1820:
	addlw	-1
	skipz
	goto	u1825
	movf	0+(??___fttol+0)+0,w
	movwf	(___fttol@sign1)
	line	52
	
l4805:	
	bsf	(___fttol@f1)+(15/8),(15)&7
	line	53
	
l4807:	
	movlw	0FFh
	andwf	(___fttol@f1),f
	movlw	0FFh
	andwf	(___fttol@f1+1),f
	movlw	0
	andwf	(___fttol@f1+2),f
	line	54
	
l4809:	
	movf	(___fttol@f1),w
	movwf	(___fttol@lval)
	movf	(___fttol@f1+1),w
	movwf	((___fttol@lval))+1
	movf	(___fttol@f1+2),w
	movwf	((___fttol@lval))+2
	clrf	((___fttol@lval))+3
	line	55
	
l4811:	
	movlw	low(08Eh)
	subwf	(___fttol@exp1),f
	line	56
	
l4813:	
	btfss	(___fttol@exp1),7
	goto	u1831
	goto	u1830
u1831:
	goto	l4823
u1830:
	line	57
	
l4815:	
	movf	(___fttol@exp1),w
	xorlw	80h
	addlw	-((-15)^80h)
	skipnc
	goto	u1841
	goto	u1840
u1841:
	goto	l4819
u1840:
	goto	l4801
	line	60
	
l4819:	
	clrc
	rrf	(___fttol@lval+3),f
	rrf	(___fttol@lval+2),f
	rrf	(___fttol@lval+1),f
	rrf	(___fttol@lval),f
	line	61
	
l4821:	
	incfsz	(___fttol@exp1),f
	goto	u1851
	goto	u1850
u1851:
	goto	l4819
u1850:
	goto	l4829
	line	63
	
l4823:	
	movlw	(018h)
	subwf	(___fttol@exp1),w
	skipc
	goto	u1861
	goto	u1860
u1861:
	goto	l2312
u1860:
	goto	l4801
	line	66
	
l4827:	
	clrc
	rlf	(___fttol@lval),f
	rlf	(___fttol@lval+1),f
	rlf	(___fttol@lval+2),f
	rlf	(___fttol@lval+3),f
	line	67
	decf	(___fttol@exp1),f
	line	68
	
l2312:	
	line	65
	movf	(___fttol@exp1),f
	skipz
	goto	u1871
	goto	u1870
u1871:
	goto	l4827
u1870:
	line	70
	
l4829:	
	movf	(___fttol@sign1),w
	skipz
	goto	u1880
	goto	l4833
u1880:
	line	71
	
l4831:	
	comf	(___fttol@lval),f
	comf	(___fttol@lval+1),f
	comf	(___fttol@lval+2),f
	comf	(___fttol@lval+3),f
	incf	(___fttol@lval),f
	skipnz
	incf	(___fttol@lval+1),f
	skipnz
	incf	(___fttol@lval+2),f
	skipnz
	incf	(___fttol@lval+3),f
	line	72
	
l4833:	
	movf	(___fttol@lval+3),w
	movwf	(?___fttol+3)
	movf	(___fttol@lval+2),w
	movwf	(?___fttol+2)
	movf	(___fttol@lval+1),w
	movwf	(?___fttol+1)
	movf	(___fttol@lval),w
	movwf	(?___fttol)

	line	73
	
l2305:	
	return
	opt stack 0
GLOBAL	__end_of___fttol
	__end_of___fttol:
;; =============== function ___fttol ends ============

	signat	___fttol,4220
	global	___ftpack
psect	text534,local,class=CODE,delta=2
global __ptext534
__ptext534:

;; *************** function ___ftpack *****************
;; Defined at:
;;		line 63 in file "C:\Program Files (x86)\HI-TECH Software\PICC\9.82\sources\float.c"
;; Parameters:    Size  Location     Type
;;  arg             3    0[COMMON] unsigned um
;;  exp             1    3[COMMON] unsigned char 
;;  sign            1    4[COMMON] unsigned char 
;; Auto vars:     Size  Location     Type
;;		None
;; Return value:  Size  Location     Type
;;                  3    0[COMMON] float 
;; Registers used:
;;		wreg, status,2, status,0
;; Tracked objects:
;;		On entry : 40/20
;;		On exit  : 40/20
;;		Unchanged: FFFBF/0
;; Data sizes:     COMMON   BANK0   BANK1   BANK3   BANK2
;;      Params:         5       0       0       0       0
;;      Locals:         0       0       0       0       0
;;      Temps:          3       0       0       0       0
;;      Totals:         8       0       0       0       0
;;Total ram usage:        8 bytes
;; Hardware stack levels used:    1
;; This function calls:
;;		Nothing
;; This function is called by:
;;		___ftadd
;;		___ftmul
;;		___awtoft
;;		___lltoft
;; This function uses a non-reentrant model
;;
psect	text534
	file	"C:\Program Files (x86)\HI-TECH Software\PICC\9.82\sources\float.c"
	line	63
	global	__size_of___ftpack
	__size_of___ftpack	equ	__end_of___ftpack-___ftpack
	
___ftpack:	
	opt	stack 4
; Regs used in ___ftpack: [wreg+status,2+status,0]
	line	64
	
l4771:	
	movf	(___ftpack@exp),w
	skipz
	goto	u1740
	goto	l4775
u1740:
	
l4773:	
	movf	(___ftpack@arg+2),w
	iorwf	(___ftpack@arg+1),w
	iorwf	(___ftpack@arg),w
	skipz
	goto	u1751
	goto	u1750
u1751:
	goto	l4781
u1750:
	line	65
	
l4775:	
	clrf	(?___ftpack)
	clrf	(?___ftpack+1)
	clrf	(?___ftpack+2)
	goto	l2564
	line	67
	
l4779:	
	incf	(___ftpack@exp),f
	line	68
	clrc
	rrf	(___ftpack@arg+2),f
	rrf	(___ftpack@arg+1),f
	rrf	(___ftpack@arg),f
	line	66
	
l4781:	
	movlw	low highword(0FE0000h)
	andwf	(___ftpack@arg+2),w
	btfss	status,2
	goto	u1761
	goto	u1760
u1761:
	goto	l4779
u1760:
	goto	l4785
	line	71
	
l4783:	
	incf	(___ftpack@exp),f
	line	72
	incf	(___ftpack@arg),f
	skipnz
	incf	(___ftpack@arg+1),f
	skipnz
	incf	(___ftpack@arg+2),f
	line	73
	clrc
	rrf	(___ftpack@arg+2),f
	rrf	(___ftpack@arg+1),f
	rrf	(___ftpack@arg),f
	line	70
	
l4785:	
	movlw	low highword(0FF0000h)
	andwf	(___ftpack@arg+2),w
	btfss	status,2
	goto	u1771
	goto	u1770
u1771:
	goto	l4783
u1770:
	goto	l4789
	line	76
	
l4787:	
	decf	(___ftpack@exp),f
	line	77
	clrc
	rlf	(___ftpack@arg),f
	rlf	(___ftpack@arg+1),f
	rlf	(___ftpack@arg+2),f
	line	75
	
l4789:	
	btfss	(___ftpack@arg+1),(15)&7
	goto	u1781
	goto	u1780
u1781:
	goto	l4787
u1780:
	
l2573:	
	line	79
	btfsc	(___ftpack@exp),(0)&7
	goto	u1791
	goto	u1790
u1791:
	goto	l2574
u1790:
	line	80
	
l4791:	
	bcf	(___ftpack@arg)+(15/8),(15)&7
	
l2574:	
	line	81
	clrc
	rrf	(___ftpack@exp),f
	line	82
	
l4793:	
	movf	(___ftpack@exp),w
	movwf	((??___ftpack+0)+0+2)
	clrf	((??___ftpack+0)+0+1)
	clrf	((??___ftpack+0)+0+0)
	movf	0+(??___ftpack+0)+0,w
	iorwf	(___ftpack@arg),f
	movf	1+(??___ftpack+0)+0,w
	iorwf	(___ftpack@arg+1),f
	movf	2+(??___ftpack+0)+0,w
	iorwf	(___ftpack@arg+2),f
	line	83
	
l4795:	
	movf	(___ftpack@sign),w
	skipz
	goto	u1800
	goto	l2575
u1800:
	line	84
	
l4797:	
	bsf	(___ftpack@arg)+(23/8),(23)&7
	
l2575:	
	line	85
	line	86
	
l2564:	
	return
	opt stack 0
GLOBAL	__end_of___ftpack
	__end_of___ftpack:
;; =============== function ___ftpack ends ============

	signat	___ftpack,12411
	global	___lbmod
psect	text535,local,class=CODE,delta=2
global __ptext535
__ptext535:

;; *************** function ___lbmod *****************
;; Defined at:
;;		line 5 in file "C:\Program Files (x86)\HI-TECH Software\PICC\9.82\sources\lbmod.c"
;; Parameters:    Size  Location     Type
;;  dividend        1    wreg     unsigned char 
;;  divisor         1    0[COMMON] unsigned char 
;; Auto vars:     Size  Location     Type
;;  dividend        1    2[COMMON] unsigned char 
;;  rem             1    4[COMMON] unsigned char 
;;  counter         1    3[COMMON] unsigned char 
;; Return value:  Size  Location     Type
;;                  1    wreg      unsigned char 
;; Registers used:
;;		wreg, status,2, status,0
;; Tracked objects:
;;		On entry : 160/0
;;		On exit  : 160/0
;;		Unchanged: FFE9F/0
;; Data sizes:     COMMON   BANK0   BANK1   BANK3   BANK2
;;      Params:         1       0       0       0       0
;;      Locals:         3       0       0       0       0
;;      Temps:          1       0       0       0       0
;;      Totals:         5       0       0       0       0
;;Total ram usage:        5 bytes
;; Hardware stack levels used:    1
;; This function calls:
;;		Nothing
;; This function is called by:
;;		_fround
;; This function uses a non-reentrant model
;;
psect	text535
	file	"C:\Program Files (x86)\HI-TECH Software\PICC\9.82\sources\lbmod.c"
	line	5
	global	__size_of___lbmod
	__size_of___lbmod	equ	__end_of___lbmod-___lbmod
	
___lbmod:	
	opt	stack 5
; Regs used in ___lbmod: [wreg+status,2+status,0]
;___lbmod@dividend stored from wreg
	line	9
	movwf	(___lbmod@dividend)
	
l4753:	
	movlw	(08h)
	movwf	(___lbmod@counter)
	line	10
	
l4755:	
	clrf	(___lbmod@rem)
	line	12
	
l4757:	
	movf	(___lbmod@dividend),w
	movwf	(??___lbmod+0)+0
	movlw	07h
u1715:
	clrc
	rrf	(??___lbmod+0)+0,f
	addlw	-1
	skipz
	goto	u1715
	clrc
	rlf	(___lbmod@rem),w
	iorwf	0+(??___lbmod+0)+0,w
	movwf	(___lbmod@rem)
	line	13
	
l4759:	
	clrc
	rlf	(___lbmod@dividend),f
	line	14
	
l4761:	
	movf	(___lbmod@divisor),w
	subwf	(___lbmod@rem),w
	skipc
	goto	u1721
	goto	u1720
u1721:
	goto	l4765
u1720:
	line	15
	
l4763:	
	movf	(___lbmod@divisor),w
	subwf	(___lbmod@rem),f
	line	16
	
l4765:	
	decfsz	(___lbmod@counter),f
	goto	u1731
	goto	u1730
u1731:
	goto	l4757
u1730:
	line	17
	
l4767:	
	movf	(___lbmod@rem),w
	line	18
	
l2234:	
	return
	opt stack 0
GLOBAL	__end_of___lbmod
	__end_of___lbmod:
;; =============== function ___lbmod ends ============

	signat	___lbmod,8313
	global	___lbdiv
psect	text536,local,class=CODE,delta=2
global __ptext536
__ptext536:

;; *************** function ___lbdiv *****************
;; Defined at:
;;		line 5 in file "C:\Program Files (x86)\HI-TECH Software\PICC\9.82\sources\lbdiv.c"
;; Parameters:    Size  Location     Type
;;  dividend        1    wreg     unsigned char 
;;  divisor         1    5[COMMON] unsigned char 
;; Auto vars:     Size  Location     Type
;;  dividend        1    6[COMMON] unsigned char 
;;  quotient        1    8[COMMON] unsigned char 
;;  counter         1    7[COMMON] unsigned char 
;; Return value:  Size  Location     Type
;;                  1    wreg      unsigned char 
;; Registers used:
;;		wreg, status,2, status,0
;; Tracked objects:
;;		On entry : 160/0
;;		On exit  : 160/0
;;		Unchanged: FFE9F/0
;; Data sizes:     COMMON   BANK0   BANK1   BANK3   BANK2
;;      Params:         1       0       0       0       0
;;      Locals:         3       0       0       0       0
;;      Temps:          0       0       0       0       0
;;      Totals:         4       0       0       0       0
;;Total ram usage:        4 bytes
;; Hardware stack levels used:    1
;; This function calls:
;;		Nothing
;; This function is called by:
;;		_fround
;; This function uses a non-reentrant model
;;
psect	text536
	file	"C:\Program Files (x86)\HI-TECH Software\PICC\9.82\sources\lbdiv.c"
	line	5
	global	__size_of___lbdiv
	__size_of___lbdiv	equ	__end_of___lbdiv-___lbdiv
	
___lbdiv:	
	opt	stack 5
; Regs used in ___lbdiv: [wreg+status,2+status,0]
;___lbdiv@dividend stored from wreg
	line	9
	movwf	(___lbdiv@dividend)
	
l4729:	
	clrf	(___lbdiv@quotient)
	line	10
	
l4731:	
	movf	(___lbdiv@divisor),w
	skipz
	goto	u1670
	goto	l4749
u1670:
	line	11
	
l4733:	
	clrf	(___lbdiv@counter)
	incf	(___lbdiv@counter),f
	line	12
	goto	l4737
	
l2223:	
	line	13
	clrc
	rlf	(___lbdiv@divisor),f
	line	14
	
l4735:	
	incf	(___lbdiv@counter),f
	line	12
	
l4737:	
	btfss	(___lbdiv@divisor),(7)&7
	goto	u1681
	goto	u1680
u1681:
	goto	l2223
u1680:
	line	16
	
l2225:	
	line	17
	clrc
	rlf	(___lbdiv@quotient),f
	line	18
	
l4739:	
	movf	(___lbdiv@divisor),w
	subwf	(___lbdiv@dividend),w
	skipc
	goto	u1691
	goto	u1690
u1691:
	goto	l4745
u1690:
	line	19
	
l4741:	
	movf	(___lbdiv@divisor),w
	subwf	(___lbdiv@dividend),f
	line	20
	
l4743:	
	bsf	(___lbdiv@quotient)+(0/8),(0)&7
	line	22
	
l4745:	
	clrc
	rrf	(___lbdiv@divisor),f
	line	23
	
l4747:	
	decfsz	(___lbdiv@counter),f
	goto	u1701
	goto	u1700
u1701:
	goto	l2225
u1700:
	line	25
	
l4749:	
	movf	(___lbdiv@quotient),w
	line	26
	
l2228:	
	return
	opt stack 0
GLOBAL	__end_of___lbdiv
	__end_of___lbdiv:
;; =============== function ___lbdiv ends ============

	signat	___lbdiv,8313
	global	___wmul
psect	text537,local,class=CODE,delta=2
global __ptext537
__ptext537:

;; *************** function ___wmul *****************
;; Defined at:
;;		line 3 in file "C:\Program Files (x86)\HI-TECH Software\PICC\9.82\sources\wmul.c"
;; Parameters:    Size  Location     Type
;;  multiplier      2    0[COMMON] unsigned int 
;;  multiplicand    2    2[COMMON] unsigned int 
;; Auto vars:     Size  Location     Type
;;  product         2    4[COMMON] unsigned int 
;; Return value:  Size  Location     Type
;;                  2    0[COMMON] unsigned int 
;; Registers used:
;;		wreg, status,2, status,0
;; Tracked objects:
;;		On entry : 160/20
;;		On exit  : 160/20
;;		Unchanged: FFE9F/0
;; Data sizes:     COMMON   BANK0   BANK1   BANK3   BANK2
;;      Params:         4       0       0       0       0
;;      Locals:         2       0       0       0       0
;;      Temps:          0       0       0       0       0
;;      Totals:         6       0       0       0       0
;;Total ram usage:        6 bytes
;; Hardware stack levels used:    1
;; This function calls:
;;		Nothing
;; This function is called by:
;;		_fround
;;		_scale
;;		_sprintf
;; This function uses a non-reentrant model
;;
psect	text537
	file	"C:\Program Files (x86)\HI-TECH Software\PICC\9.82\sources\wmul.c"
	line	3
	global	__size_of___wmul
	__size_of___wmul	equ	__end_of___wmul-___wmul
	
___wmul:	
	opt	stack 6
; Regs used in ___wmul: [wreg+status,2+status,0]
	line	4
	
l4713:	
	clrf	(___wmul@product)
	clrf	(___wmul@product+1)
	line	7
	
l4715:	
	btfss	(___wmul@multiplier),(0)&7
	goto	u1651
	goto	u1650
u1651:
	goto	l4719
u1650:
	line	8
	
l4717:	
	movf	(___wmul@multiplicand),w
	addwf	(___wmul@product),f
	skipnc
	incf	(___wmul@product+1),f
	movf	(___wmul@multiplicand+1),w
	addwf	(___wmul@product+1),f
	line	9
	
l4719:	
	clrc
	rlf	(___wmul@multiplicand),f
	rlf	(___wmul@multiplicand+1),f
	line	10
	
l4721:	
	clrc
	rrf	(___wmul@multiplier+1),f
	rrf	(___wmul@multiplier),f
	line	11
	
l4723:	
	movf	((___wmul@multiplier+1)),w
	iorwf	((___wmul@multiplier)),w
	skipz
	goto	u1661
	goto	u1660
u1661:
	goto	l4715
u1660:
	line	12
	
l4725:	
	movf	(___wmul@product+1),w
	movwf	(?___wmul+1)
	movf	(___wmul@product),w
	movwf	(?___wmul)
	line	13
	
l2198:	
	return
	opt stack 0
GLOBAL	__end_of___wmul
	__end_of___wmul:
;; =============== function ___wmul ends ============

	signat	___wmul,8314
	global	___bmul
psect	text538,local,class=CODE,delta=2
global __ptext538
__ptext538:

;; *************** function ___bmul *****************
;; Defined at:
;;		line 3 in file "C:\Program Files (x86)\HI-TECH Software\PICC\9.82\sources\bmul.c"
;; Parameters:    Size  Location     Type
;;  multiplier      1    wreg     unsigned char 
;;  multiplicand    1    9[COMMON] unsigned char 
;; Auto vars:     Size  Location     Type
;;  multiplier      1   11[COMMON] unsigned char 
;;  product         1   10[COMMON] unsigned char 
;; Return value:  Size  Location     Type
;;                  1    wreg      unsigned char 
;; Registers used:
;;		wreg, status,2, status,0
;; Tracked objects:
;;		On entry : 60/0
;;		On exit  : 60/0
;;		Unchanged: FFF9F/0
;; Data sizes:     COMMON   BANK0   BANK1   BANK3   BANK2
;;      Params:         1       0       0       0       0
;;      Locals:         2       0       0       0       0
;;      Temps:          0       0       0       0       0
;;      Totals:         3       0       0       0       0
;;Total ram usage:        3 bytes
;; Hardware stack levels used:    1
;; This function calls:
;;		Nothing
;; This function is called by:
;;		_fround
;;		_scale
;; This function uses a non-reentrant model
;;
psect	text538
	file	"C:\Program Files (x86)\HI-TECH Software\PICC\9.82\sources\bmul.c"
	line	3
	global	__size_of___bmul
	__size_of___bmul	equ	__end_of___bmul-___bmul
	
___bmul:	
	opt	stack 5
; Regs used in ___bmul: [wreg+status,2+status,0]
;___bmul@multiplier stored from wreg
	movwf	(___bmul@multiplier)
	line	4
	
l4697:	
	clrf	(___bmul@product)
	line	7
	
l4699:	
	btfss	(___bmul@multiplier),(0)&7
	goto	u1631
	goto	u1630
u1631:
	goto	l4703
u1630:
	line	8
	
l4701:	
	movf	(___bmul@multiplicand),w
	addwf	(___bmul@product),f
	line	9
	
l4703:	
	clrc
	rlf	(___bmul@multiplicand),f
	line	10
	
l4705:	
	clrc
	rrf	(___bmul@multiplier),f
	line	11
	
l4707:	
	movf	(___bmul@multiplier),f
	skipz
	goto	u1641
	goto	u1640
u1641:
	goto	l4699
u1640:
	line	12
	
l4709:	
	movf	(___bmul@product),w
	line	13
	
l2192:	
	return
	opt stack 0
GLOBAL	__end_of___bmul
	__end_of___bmul:
;; =============== function ___bmul ends ============

	signat	___bmul,8313
	global	__div_to_l_
psect	text539,local,class=CODE,delta=2
global __ptext539
__ptext539:

;; *************** function __div_to_l_ *****************
;; Defined at:
;;		line 61 in file "C:\Program Files (x86)\HI-TECH Software\PICC\9.82\sources\fldivl.c"
;; Parameters:    Size  Location     Type
;;  f1              3    0[COMMON] unsigned char 
;;  f2              3    3[COMMON] unsigned char 
;; Auto vars:     Size  Location     Type
;;  quot            4    0[BANK0 ] unsigned long 
;;  exp1            1    5[BANK0 ] unsigned char 
;;  cntr            1    4[BANK0 ] unsigned char 
;; Return value:  Size  Location     Type
;;                  4    0[COMMON] unsigned long 
;; Registers used:
;;		wreg, fsr0l, fsr0h, status,2, status,0
;; Tracked objects:
;;		On entry : 0/0
;;		On exit  : 60/0
;;		Unchanged: FFF9F/0
;; Data sizes:     COMMON   BANK0   BANK1   BANK3   BANK2
;;      Params:         6       0       0       0       0
;;      Locals:         0       6       0       0       0
;;      Temps:          8       0       0       0       0
;;      Totals:        14       6       0       0       0
;;Total ram usage:       20 bytes
;; Hardware stack levels used:    1
;; This function calls:
;;		Nothing
;; This function is called by:
;;		_sprintf
;; This function uses a non-reentrant model
;;
psect	text539
	file	"C:\Program Files (x86)\HI-TECH Software\PICC\9.82\sources\fldivl.c"
	line	61
	global	__size_of__div_to_l_
	__size_of__div_to_l_	equ	__end_of__div_to_l_-__div_to_l_
	
__div_to_l_:	
	opt	stack 6
; Regs used in __div_to_l_: [wreg-fsr0h+status,2+status,0]
	line	66
	
l4651:	
	movlw	low(__div_to_l_@f1)
	movwf	fsr0
	movf	indf,w
	movwf	(??__div_to_l_+0)+0+0
	incf	fsr0,f
	movf	indf,w
	movwf	(??__div_to_l_+0)+0+1
	incf	fsr0,f
	movf	indf,w
	movwf	(??__div_to_l_+0)+0+2
	incf	fsr0,f
	movf	indf,w
	movwf	(??__div_to_l_+0)+0+3
	clrc
	rlf	(??__div_to_l_+0)+2,w
	rlf	(??__div_to_l_+0)+3,w
	bcf	status, 5	;RP0=0, select bank0
	bcf	status, 6	;RP1=0, select bank0
	movwf	(__div_to_l_@exp1)
	movf	((__div_to_l_@exp1)),f
	skipz
	goto	u1541
	goto	u1540
u1541:
	goto	l4655
u1540:
	line	67
	
l4653:	
	clrf	(?__div_to_l_)
	clrf	(?__div_to_l_+1)
	clrf	(?__div_to_l_+2)
	clrf	(?__div_to_l_+3)
	goto	l2482
	line	68
	
l4655:	
	movlw	low(__div_to_l_@f2)
	movwf	fsr0
	movf	indf,w
	movwf	(??__div_to_l_+0)+0+0
	incf	fsr0,f
	movf	indf,w
	movwf	(??__div_to_l_+0)+0+1
	incf	fsr0,f
	movf	indf,w
	movwf	(??__div_to_l_+0)+0+2
	incf	fsr0,f
	movf	indf,w
	movwf	(??__div_to_l_+0)+0+3
	clrc
	rlf	(??__div_to_l_+0)+2,w
	rlf	(??__div_to_l_+0)+3,w
	movwf	(__div_to_l_@cntr)
	movf	((__div_to_l_@cntr)),f
	skipz
	goto	u1551
	goto	u1550
u1551:
	goto	l4659
u1550:
	goto	l4653
	line	70
	
l4659:	
	movlw	low(__div_to_l_@f1)
	movwf	fsr0
	movlw	0
	iorwf	indf,f
	incf	fsr0,f
	movlw	0
	iorwf	indf,f
	incf	fsr0,f
	movlw	080h
	iorwf	indf,f
	incf	fsr0,f
	movlw	0
	iorwf	indf,f
	line	71
	movlw	low(__div_to_l_@f1)
	movwf	fsr0
	movlw	0FFh
	andwf	indf,f
	incf	fsr0,f
	movlw	0FFh
	andwf	indf,f
	incf	fsr0,f
	movlw	0FFh
	andwf	indf,f
	incf	fsr0,f
	movlw	0
	andwf	indf,f
	line	72
	movlw	low(__div_to_l_@f2)
	movwf	fsr0
	movlw	0
	iorwf	indf,f
	incf	fsr0,f
	movlw	0
	iorwf	indf,f
	incf	fsr0,f
	movlw	080h
	iorwf	indf,f
	incf	fsr0,f
	movlw	0
	iorwf	indf,f
	line	73
	movlw	low(__div_to_l_@f2)
	movwf	fsr0
	movlw	0FFh
	andwf	indf,f
	incf	fsr0,f
	movlw	0FFh
	andwf	indf,f
	incf	fsr0,f
	movlw	0FFh
	andwf	indf,f
	incf	fsr0,f
	movlw	0
	andwf	indf,f
	line	74
	
l4661:	
	clrf	(__div_to_l_@quot)
	clrf	(__div_to_l_@quot+1)
	clrf	(__div_to_l_@quot+2)
	clrf	(__div_to_l_@quot+3)
	line	75
	
l4663:	
	movlw	low(07Fh)
	subwf	(__div_to_l_@exp1),f
	line	76
	
l4665:	
	movlw	(0A0h)
	addwf	(__div_to_l_@cntr),w
	movwf	(??__div_to_l_+0)+0
	movf	0+(??__div_to_l_+0)+0,w
	subwf	(__div_to_l_@exp1),f
	line	77
	
l4667:	
	movlw	(020h)
	movwf	(__div_to_l_@cntr)
	line	79
	
l4669:	
	clrc
	rlf	(__div_to_l_@quot),f
	rlf	(__div_to_l_@quot+1),f
	rlf	(__div_to_l_@quot+2),f
	rlf	(__div_to_l_@quot+3),f
	line	80
	
l4671:	
	movlw	low(__div_to_l_@f2)
	movwf	fsr0
	movf	indf,w
	movwf	(??__div_to_l_+0)+0+0
	incf	fsr0,f
	movf	indf,w
	movwf	(??__div_to_l_+0)+0+1
	incf	fsr0,f
	movf	indf,w
	movwf	(??__div_to_l_+0)+0+2
	incf	fsr0,f
	movf	indf,w
	movwf	(??__div_to_l_+0)+0+3
	movlw	low(__div_to_l_@f1)
	movwf	fsr0
	movf	indf,w
	movwf	(??__div_to_l_+4)+0+0
	incf	fsr0,f
	movf	indf,w
	movwf	(??__div_to_l_+4)+0+1
	incf	fsr0,f
	movf	indf,w
	movwf	(??__div_to_l_+4)+0+2
	incf	fsr0,f
	movf	indf,w
	movwf	(??__div_to_l_+4)+0+3
	movf	3+(??__div_to_l_+0)+0,w
	subwf	3+(??__div_to_l_+4)+0,w
	skipz
	goto	u1565
	movf	2+(??__div_to_l_+0)+0,w
	subwf	2+(??__div_to_l_+4)+0,w
	skipz
	goto	u1565
	movf	1+(??__div_to_l_+0)+0,w
	subwf	1+(??__div_to_l_+4)+0,w
	skipz
	goto	u1565
	movf	0+(??__div_to_l_+0)+0,w
	subwf	0+(??__div_to_l_+4)+0,w
u1565:
	skipc
	goto	u1561
	goto	u1560
u1561:
	goto	l2485
u1560:
	line	81
	
l4673:	
	movlw	low(__div_to_l_@f2)
	movwf	fsr0
	movf	indf,w
	movwf	(??__div_to_l_+0)+0+0
	incf	fsr0,f
	movf	indf,w
	movwf	(??__div_to_l_+0)+0+1
	incf	fsr0,f
	movf	indf,w
	movwf	(??__div_to_l_+0)+0+2
	incf	fsr0,f
	movf	indf,w
	movwf	(??__div_to_l_+0)+0+3
	movlw	low(__div_to_l_@f1)
	movwf	fsr0
	movf	0+(??__div_to_l_+0)+0,w
	subwf	indf,f
	incf	fsr0
	movf	1+(??__div_to_l_+0)+0,w
	skipc
	incfsz	1+(??__div_to_l_+0)+0,w
	subwf	indf,f
	incf	fsr0
	movf	2+(??__div_to_l_+0)+0,w
	skipc
	incfsz	2+(??__div_to_l_+0)+0,w
	subwf	indf,f
	incf	fsr0
	movf	3+(??__div_to_l_+0)+0,w
	skipc
	incf	3+(??__div_to_l_+0)+0,w
	subwf	indf,f
	movlw	3
	subwf	fsr0
	line	82
	
l4675:	
	bsf	(__div_to_l_@quot)+(0/8),(0)&7
	line	83
	
l2485:	
	line	84
	movlw	low(__div_to_l_@f1)
	movwf	fsr0
	clrc
	rlf	indf,f
	incf	fsr0,f
	rlf	indf,f
	incf	fsr0,f
	rlf	indf,f
	incf	fsr0,f
	rlf	indf,f
	line	85
	
l4677:	
	decfsz	(__div_to_l_@cntr),f
	goto	u1571
	goto	u1570
u1571:
	goto	l4669
u1570:
	
l2486:	
	line	86
	btfss	(__div_to_l_@exp1),7
	goto	u1581
	goto	u1580
u1581:
	goto	l4687
u1580:
	line	87
	
l4679:	
	movf	(__div_to_l_@exp1),w
	xorlw	80h
	addlw	-((-31)^80h)
	skipnc
	goto	u1591
	goto	u1590
u1591:
	goto	l4683
u1590:
	goto	l4653
	line	90
	
l4683:	
	clrc
	rrf	(__div_to_l_@quot+3),f
	rrf	(__div_to_l_@quot+2),f
	rrf	(__div_to_l_@quot+1),f
	rrf	(__div_to_l_@quot),f
	line	91
	
l4685:	
	incfsz	(__div_to_l_@exp1),f
	goto	u1601
	goto	u1600
u1601:
	goto	l4683
u1600:
	goto	l4693
	line	93
	
l4687:	
	movlw	(020h)
	subwf	(__div_to_l_@exp1),w
	skipc
	goto	u1611
	goto	u1610
u1611:
	goto	l2493
u1610:
	goto	l4653
	line	96
	
l4691:	
	clrc
	rlf	(__div_to_l_@quot),f
	rlf	(__div_to_l_@quot+1),f
	rlf	(__div_to_l_@quot+2),f
	rlf	(__div_to_l_@quot+3),f
	line	97
	decf	(__div_to_l_@exp1),f
	line	98
	
l2493:	
	line	95
	movf	(__div_to_l_@exp1),f
	skipz
	goto	u1621
	goto	u1620
u1621:
	goto	l4691
u1620:
	line	100
	
l4693:	
	movf	(__div_to_l_@quot+3),w
	movwf	(?__div_to_l_+3)
	movf	(__div_to_l_@quot+2),w
	movwf	(?__div_to_l_+2)
	movf	(__div_to_l_@quot+1),w
	movwf	(?__div_to_l_+1)
	movf	(__div_to_l_@quot),w
	movwf	(?__div_to_l_)

	line	101
	
l2482:	
	return
	opt stack 0
GLOBAL	__end_of__div_to_l_
	__end_of__div_to_l_:
;; =============== function __div_to_l_ ends ============

	signat	__div_to_l_,8316
	global	__tdiv_to_l_
psect	text540,local,class=CODE,delta=2
global __ptext540
__ptext540:

;; *************** function __tdiv_to_l_ *****************
;; Defined at:
;;		line 61 in file "C:\Program Files (x86)\HI-TECH Software\PICC\9.82\sources\ftdivl.c"
;; Parameters:    Size  Location     Type
;;  f1              3    0[COMMON] float 
;;  f2              3    3[COMMON] float 
;; Auto vars:     Size  Location     Type
;;  quot            4    0[BANK0 ] unsigned long 
;;  exp1            1    5[BANK0 ] unsigned char 
;;  cntr            1    4[BANK0 ] unsigned char 
;; Return value:  Size  Location     Type
;;                  4    0[COMMON] unsigned long 
;; Registers used:
;;		wreg, status,2, status,0
;; Tracked objects:
;;		On entry : 60/20
;;		On exit  : 60/0
;;		Unchanged: FFF9F/0
;; Data sizes:     COMMON   BANK0   BANK1   BANK3   BANK2
;;      Params:         6       0       0       0       0
;;      Locals:         0       6       0       0       0
;;      Temps:          3       0       0       0       0
;;      Totals:         9       6       0       0       0
;;Total ram usage:       15 bytes
;; Hardware stack levels used:    1
;; This function calls:
;;		Nothing
;; This function is called by:
;;		_sprintf
;; This function uses a non-reentrant model
;;
psect	text540
	file	"C:\Program Files (x86)\HI-TECH Software\PICC\9.82\sources\ftdivl.c"
	line	61
	global	__size_of__tdiv_to_l_
	__size_of__tdiv_to_l_	equ	__end_of__tdiv_to_l_-__tdiv_to_l_
	
__tdiv_to_l_:	
	opt	stack 6
; Regs used in __tdiv_to_l_: [wreg+status,2+status,0]
	line	66
	
l4603:	
	movf	(__tdiv_to_l_@f1),w
	movwf	((??__tdiv_to_l_+0)+0)
	movf	(__tdiv_to_l_@f1+1),w
	movwf	((??__tdiv_to_l_+0)+0+1)
	movf	(__tdiv_to_l_@f1+2),w
	movwf	((??__tdiv_to_l_+0)+0+2)
	clrc
	rlf	(??__tdiv_to_l_+0)+1,w
	rlf	(??__tdiv_to_l_+0)+2,w
	bcf	status, 5	;RP0=0, select bank0
	movwf	(__tdiv_to_l_@exp1)
	movf	((__tdiv_to_l_@exp1)),f
	skipz
	goto	u1451
	goto	u1450
u1451:
	goto	l4607
u1450:
	line	67
	
l4605:	
	clrf	(?__tdiv_to_l_)
	clrf	(?__tdiv_to_l_+1)
	clrf	(?__tdiv_to_l_+2)
	clrf	(?__tdiv_to_l_+3)
	goto	l2439
	line	68
	
l4607:	
	movf	(__tdiv_to_l_@f2),w
	movwf	((??__tdiv_to_l_+0)+0)
	movf	(__tdiv_to_l_@f2+1),w
	movwf	((??__tdiv_to_l_+0)+0+1)
	movf	(__tdiv_to_l_@f2+2),w
	movwf	((??__tdiv_to_l_+0)+0+2)
	clrc
	rlf	(??__tdiv_to_l_+0)+1,w
	rlf	(??__tdiv_to_l_+0)+2,w
	movwf	(__tdiv_to_l_@cntr)
	movf	((__tdiv_to_l_@cntr)),f
	skipz
	goto	u1461
	goto	u1460
u1461:
	goto	l2440
u1460:
	goto	l4605
	line	69
	
l2440:	
	line	70
	bsf	(__tdiv_to_l_@f1)+(15/8),(15)&7
	line	71
	
l4611:	
	movlw	0FFh
	andwf	(__tdiv_to_l_@f1),f
	movlw	0FFh
	andwf	(__tdiv_to_l_@f1+1),f
	movlw	0
	andwf	(__tdiv_to_l_@f1+2),f
	line	72
	
l4613:	
	bsf	(__tdiv_to_l_@f2)+(15/8),(15)&7
	line	73
	movlw	0FFh
	andwf	(__tdiv_to_l_@f2),f
	movlw	0FFh
	andwf	(__tdiv_to_l_@f2+1),f
	movlw	0
	andwf	(__tdiv_to_l_@f2+2),f
	line	74
	
l4615:	
	clrf	(__tdiv_to_l_@quot)
	clrf	(__tdiv_to_l_@quot+1)
	clrf	(__tdiv_to_l_@quot+2)
	clrf	(__tdiv_to_l_@quot+3)
	line	75
	
l4617:	
	movlw	low(07Fh)
	subwf	(__tdiv_to_l_@exp1),f
	line	76
	
l4619:	
	movlw	(098h)
	addwf	(__tdiv_to_l_@cntr),w
	movwf	(??__tdiv_to_l_+0)+0
	movf	0+(??__tdiv_to_l_+0)+0,w
	subwf	(__tdiv_to_l_@exp1),f
	line	77
	movlw	(018h)
	movwf	(__tdiv_to_l_@cntr)
	line	79
	
l4621:	
	clrc
	rlf	(__tdiv_to_l_@quot),f
	rlf	(__tdiv_to_l_@quot+1),f
	rlf	(__tdiv_to_l_@quot+2),f
	rlf	(__tdiv_to_l_@quot+3),f
	line	80
	
l4623:	
	movf	(__tdiv_to_l_@f2+2),w
	subwf	(__tdiv_to_l_@f1+2),w
	skipz
	goto	u1475
	movf	(__tdiv_to_l_@f2+1),w
	subwf	(__tdiv_to_l_@f1+1),w
	skipz
	goto	u1475
	movf	(__tdiv_to_l_@f2),w
	subwf	(__tdiv_to_l_@f1),w
u1475:
	skipc
	goto	u1471
	goto	u1470
u1471:
	goto	l4629
u1470:
	line	81
	
l4625:	
	movf	(__tdiv_to_l_@f2),w
	subwf	(__tdiv_to_l_@f1),f
	movf	(__tdiv_to_l_@f2+1),w
	skipc
	incfsz	(__tdiv_to_l_@f2+1),w
	subwf	(__tdiv_to_l_@f1+1),f
	movf	(__tdiv_to_l_@f2+2),w
	skipc
	incf	(__tdiv_to_l_@f2+2),w
	subwf	(__tdiv_to_l_@f1+2),f
	line	82
	
l4627:	
	bsf	(__tdiv_to_l_@quot)+(0/8),(0)&7
	line	84
	
l4629:	
	clrc
	rlf	(__tdiv_to_l_@f1),f
	rlf	(__tdiv_to_l_@f1+1),f
	rlf	(__tdiv_to_l_@f1+2),f
	line	85
	
l4631:	
	decfsz	(__tdiv_to_l_@cntr),f
	goto	u1481
	goto	u1480
u1481:
	goto	l4621
u1480:
	
l2443:	
	line	86
	btfss	(__tdiv_to_l_@exp1),7
	goto	u1491
	goto	u1490
u1491:
	goto	l4641
u1490:
	line	87
	
l4633:	
	movf	(__tdiv_to_l_@exp1),w
	xorlw	80h
	addlw	-((-23)^80h)
	skipnc
	goto	u1501
	goto	u1500
u1501:
	goto	l4637
u1500:
	goto	l4605
	line	90
	
l4637:	
	clrc
	rrf	(__tdiv_to_l_@quot+3),f
	rrf	(__tdiv_to_l_@quot+2),f
	rrf	(__tdiv_to_l_@quot+1),f
	rrf	(__tdiv_to_l_@quot),f
	line	91
	
l4639:	
	incfsz	(__tdiv_to_l_@exp1),f
	goto	u1511
	goto	u1510
u1511:
	goto	l4637
u1510:
	goto	l4647
	line	93
	
l4641:	
	movlw	(018h)
	subwf	(__tdiv_to_l_@exp1),w
	skipc
	goto	u1521
	goto	u1520
u1521:
	goto	l2450
u1520:
	goto	l4605
	line	96
	
l4645:	
	clrc
	rlf	(__tdiv_to_l_@quot),f
	rlf	(__tdiv_to_l_@quot+1),f
	rlf	(__tdiv_to_l_@quot+2),f
	rlf	(__tdiv_to_l_@quot+3),f
	line	97
	decf	(__tdiv_to_l_@exp1),f
	line	98
	
l2450:	
	line	95
	movf	(__tdiv_to_l_@exp1),f
	skipz
	goto	u1531
	goto	u1530
u1531:
	goto	l4645
u1530:
	line	100
	
l4647:	
	movf	(__tdiv_to_l_@quot+3),w
	movwf	(?__tdiv_to_l_+3)
	movf	(__tdiv_to_l_@quot+2),w
	movwf	(?__tdiv_to_l_+2)
	movf	(__tdiv_to_l_@quot+1),w
	movwf	(?__tdiv_to_l_+1)
	movf	(__tdiv_to_l_@quot),w
	movwf	(?__tdiv_to_l_)

	line	101
	
l2439:	
	return
	opt stack 0
GLOBAL	__end_of__tdiv_to_l_
	__end_of__tdiv_to_l_:
;; =============== function __tdiv_to_l_ ends ============

	signat	__tdiv_to_l_,8316
	global	_getch
psect	text541,local,class=CODE,delta=2
global __ptext541
__ptext541:

;; *************** function _getch *****************
;; Defined at:
;;		line 248 in file "C:\Users\petir\Documents\PIC_PROG\C_PuertoSerial\C_PuertoSerial_usart.c"
;; Parameters:    Size  Location     Type
;;		None
;; Auto vars:     Size  Location     Type
;;		None
;; Return value:  Size  Location     Type
;;                  1    wreg      unsigned char 
;; Registers used:
;;		wreg
;; Tracked objects:
;;		On entry : 160/20
;;		On exit  : 160/0
;;		Unchanged: FFE9F/0
;; Data sizes:     COMMON   BANK0   BANK1   BANK3   BANK2
;;      Params:         0       0       0       0       0
;;      Locals:         0       0       0       0       0
;;      Temps:          0       0       0       0       0
;;      Totals:         0       0       0       0       0
;;Total ram usage:        0 bytes
;; Hardware stack levels used:    1
;; This function calls:
;;		Nothing
;; This function is called by:
;;		_main
;; This function uses a non-reentrant model
;;
psect	text541
	file	"C:\Users\petir\Documents\PIC_PROG\C_PuertoSerial\C_PuertoSerial_usart.c"
	line	248
	global	__size_of_getch
	__size_of_getch	equ	__end_of_getch-_getch
	
_getch:	
	opt	stack 7
; Regs used in _getch: [wreg]
	line	249
	
l4597:	
;C_PuertoSerial_usart.c: 249: while(!RCIF) continue;
	
l1108:	
	bcf	status, 5	;RP0=0, select bank0
	btfss	(101/8),(101)&7
	goto	u1441
	goto	u1440
u1441:
	goto	l1108
u1440:
	line	250
	
l4599:	
;C_PuertoSerial_usart.c: 250: return RCREG;
	movf	(26),w	;volatile
	line	251
	
l1111:	
	return
	opt stack 0
GLOBAL	__end_of_getch
	__end_of_getch:
;; =============== function _getch ends ============

	signat	_getch,89
	global	_putch
psect	text542,local,class=CODE,delta=2
global __ptext542
__ptext542:

;; *************** function _putch *****************
;; Defined at:
;;		line 242 in file "C:\Users\petir\Documents\PIC_PROG\C_PuertoSerial\C_PuertoSerial_usart.c"
;; Parameters:    Size  Location     Type
;;  dato            1    wreg     unsigned char 
;; Auto vars:     Size  Location     Type
;;  dato            1    0[COMMON] unsigned char 
;; Return value:  Size  Location     Type
;;		None               void
;; Registers used:
;;		wreg
;; Tracked objects:
;;		On entry : 0/0
;;		On exit  : 60/0
;;		Unchanged: FFF9F/0
;; Data sizes:     COMMON   BANK0   BANK1   BANK3   BANK2
;;      Params:         0       0       0       0       0
;;      Locals:         1       0       0       0       0
;;      Temps:          0       0       0       0       0
;;      Totals:         1       0       0       0       0
;;Total ram usage:        1 bytes
;; Hardware stack levels used:    1
;; This function calls:
;;		Nothing
;; This function is called by:
;;		_main
;; This function uses a non-reentrant model
;;
psect	text542
	file	"C:\Users\petir\Documents\PIC_PROG\C_PuertoSerial\C_PuertoSerial_usart.c"
	line	242
	global	__size_of_putch
	__size_of_putch	equ	__end_of_putch-_putch
	
_putch:	
	opt	stack 7
; Regs used in _putch: [wreg]
;putch@dato stored from wreg
	movwf	(putch@dato)
	line	243
	
l4593:	
;C_PuertoSerial_usart.c: 243: while(!TXIF) continue;
	
l1102:	
	bcf	status, 5	;RP0=0, select bank0
	bcf	status, 6	;RP1=0, select bank0
	btfss	(100/8),(100)&7
	goto	u1431
	goto	u1430
u1431:
	goto	l1102
u1430:
	line	244
	
l4595:	
;C_PuertoSerial_usart.c: 244: TXREG=dato;
	movf	(putch@dato),w
	movwf	(25)	;volatile
	line	245
	
l1105:	
	return
	opt stack 0
GLOBAL	__end_of_putch
	__end_of_putch:
;; =============== function _putch ends ============

	signat	_putch,4216
	global	_msecbase
psect	text543,local,class=CODE,delta=2
global __ptext543
__ptext543:

;; *************** function _msecbase *****************
;; Defined at:
;;		line 11 in file "C:\Users\petir\Documents\PIC_PROG\C_PuertoSerial\C_PuertoSerial_usart.c"
;; Parameters:    Size  Location     Type
;;		None
;; Auto vars:     Size  Location     Type
;;		None
;; Return value:  Size  Location     Type
;;		None               void
;; Registers used:
;;		wreg
;; Tracked objects:
;;		On entry : 0/0
;;		On exit  : 0/0
;;		Unchanged: FFF9F/0
;; Data sizes:     COMMON   BANK0   BANK1   BANK3   BANK2
;;      Params:         0       0       0       0       0
;;      Locals:         0       0       0       0       0
;;      Temps:          0       0       0       0       0
;;      Totals:         0       0       0       0       0
;;Total ram usage:        0 bytes
;; Hardware stack levels used:    1
;; This function calls:
;;		Nothing
;; This function is called by:
;;		_pause
;; This function uses a non-reentrant model
;;
psect	text543
	file	"C:\Users\petir\Documents\PIC_PROG\C_PuertoSerial\C_PuertoSerial_usart.c"
	line	11
	global	__size_of_msecbase
	__size_of_msecbase	equ	__end_of_msecbase-_msecbase
	
_msecbase:	
	opt	stack 4
; Regs used in _msecbase: [wreg]
	line	14
	
l4591:	
;C_PuertoSerial_usart.c: 14: OPTION_REG = 0b00000001;
	movlw	(01h)
	bsf	status, 5	;RP0=1, select bank1
	bcf	status, 6	;RP1=0, select bank1
	movwf	(129)^080h	;volatile
	line	15
;C_PuertoSerial_usart.c: 15: TMR0 = 0x07;
	movlw	(07h)
	bcf	status, 5	;RP0=0, select bank0
	movwf	(1)	;volatile
	line	16
;C_PuertoSerial_usart.c: 16: while(!T0IF);
	
l1055:	
	btfss	(90/8),(90)&7
	goto	u1421
	goto	u1420
u1421:
	goto	l1055
u1420:
	
l1057:	
	line	17
;C_PuertoSerial_usart.c: 17: T0IF = 0;
	bcf	(90/8),(90)&7
	line	18
	
l1058:	
	return
	opt stack 0
GLOBAL	__end_of_msecbase
	__end_of_msecbase:
;; =============== function _msecbase ends ============

	signat	_msecbase,88
psect	text544,local,class=CODE,delta=2
global __ptext544
__ptext544:
	global	btemp
	btemp set 07Eh

	DABS	1,126,2	;btemp
	global	wtemp0
	wtemp0 set btemp
	end
