opt subtitle "HI-TECH Software Omniscient Code Generator (PRO mode) build 9453"

opt pagewidth 120

	opt pm

	processor	16F887
clrc	macro
	bcf	3,0
	endm
clrz	macro
	bcf	3,2
	endm
setc	macro
	bsf	3,0
	endm
setz	macro
	bsf	3,2
	endm
skipc	macro
	btfss	3,0
	endm
skipz	macro
	btfss	3,2
	endm
skipnc	macro
	btfsc	3,0
	endm
skipnz	macro
	btfsc	3,2
	endm
indf	equ	0
indf0	equ	0
pc	equ	2
pcl	equ	2
status	equ	3
fsr	equ	4
fsr0	equ	4
c	equ	1
z	equ	0
pclath	equ	10
# 9 "C:\Users\petir\Documents\PIC_PROG\C_PuertoSerial\C_PuertoSerial_usart.c"
	psect config,class=CONFIG,delta=2 ;#
# 9 "C:\Users\petir\Documents\PIC_PROG\C_PuertoSerial\C_PuertoSerial_usart.c"
	dw 0xFFFC & 0xFFF7 & 0xFFFF & 0xFFDF & 0xFFFF & 0xFFFF & 0xFCFF & 0xFBFF & 0xF7FF & 0xEFFF & 0xFFFF ;#
# 10 "C:\Users\petir\Documents\PIC_PROG\C_PuertoSerial\C_PuertoSerial_usart.c"
	psect config,class=CONFIG,delta=2 ;#
# 10 "C:\Users\petir\Documents\PIC_PROG\C_PuertoSerial\C_PuertoSerial_usart.c"
	dw 0xFFFF & 0xFFFF ;#
	FNCALL	_main,_pause
	FNCALL	_main,_lcd_write
	FNCALL	_main,_lcd_clear
	FNCALL	_main,_putch
	FNCALL	_main,_gets_Serial
	FNCALL	_main,___awtoft
	FNCALL	_main,___ftmul
	FNCALL	_main,_sprintf
	FNCALL	_main,_lcd_goto
	FNCALL	_main,_lcd_puts
	FNCALL	_sprintf,___ftge
	FNCALL	_sprintf,___ftneg
	FNCALL	_sprintf,___wmul
	FNCALL	_sprintf,___awdiv
	FNCALL	_sprintf,_scale
	FNCALL	_sprintf,___ftmul
	FNCALL	_sprintf,_fround
	FNCALL	_sprintf,___ftadd
	FNCALL	_sprintf,___fttol
	FNCALL	_sprintf,__div_to_l_
	FNCALL	_sprintf,__tdiv_to_l_
	FNCALL	_sprintf,___lltoft
	FNCALL	_sprintf,___ftsub
	FNCALL	_sprintf,___lldiv
	FNCALL	_sprintf,___llmod
	FNCALL	_lcd_goto,_lcd_write
	FNCALL	_lcd_puts,_lcd_write
	FNCALL	_lcd_clear,_lcd_write
	FNCALL	_lcd_clear,_pause
	FNCALL	___ftsub,___ftadd
	FNCALL	_scale,___awmod
	FNCALL	_scale,___awdiv
	FNCALL	_scale,___ftmul
	FNCALL	_scale,___bmul
	FNCALL	_fround,___lbmod
	FNCALL	_fround,___bmul
	FNCALL	_fround,___lbdiv
	FNCALL	_fround,___ftmul
	FNCALL	_lcd_write,_pause
	FNCALL	___lltoft,___ftpack
	FNCALL	___awtoft,___ftpack
	FNCALL	___ftmul,___ftpack
	FNCALL	___ftadd,___ftpack
	FNCALL	_gets_Serial,_getch
	FNCALL	_pause,_msecbase
	FNROOT	_main
	global	__npowers_
psect	strings,class=STRING,delta=2
global __pstrings
__pstrings:
;	global	stringdir,stringtab,__stringbase
stringtab:
;	String table - string pointers are 1 byte each
stringcode:stringdir:
movlw high(stringdir)
movwf pclath
movf fsr,w
incf fsr
	addwf pc
__stringbase:
	retlw	0
psect	strings
	file	"C:\Program Files (x86)\HI-TECH Software\PICC\9.82\sources\powers.c"
	line	39
__npowers_:
	retlw	0x0
	retlw	0x80
	retlw	0x3f

	retlw	0xcd
	retlw	0xcc
	retlw	0x3d

	retlw	0xd7
	retlw	0x23
	retlw	0x3c

	retlw	0x12
	retlw	0x83
	retlw	0x3a

	retlw	0xb7
	retlw	0xd1
	retlw	0x38

	retlw	0xc6
	retlw	0x27
	retlw	0x37

	retlw	0x38
	retlw	0x86
	retlw	0x35

	retlw	0xc0
	retlw	0xd6
	retlw	0x33

	retlw	0xcc
	retlw	0x2b
	retlw	0x32

	retlw	0x70
	retlw	0x89
	retlw	0x30

	retlw	0xe7
	retlw	0xdb
	retlw	0x2e

	retlw	0xe5
	retlw	0x3c
	retlw	0x1e

	retlw	0x42
	retlw	0xa2
	retlw	0xd

	global	__powers_
psect	strings
	file	"C:\Program Files (x86)\HI-TECH Software\PICC\9.82\sources\powers.c"
	line	7
__powers_:
	retlw	0x0
	retlw	0x80
	retlw	0x3f

	retlw	0x0
	retlw	0x20
	retlw	0x41

	retlw	0x0
	retlw	0xc8
	retlw	0x42

	retlw	0x0
	retlw	0x7a
	retlw	0x44

	retlw	0x40
	retlw	0x1c
	retlw	0x46

	retlw	0x50
	retlw	0xc3
	retlw	0x47

	retlw	0x24
	retlw	0x74
	retlw	0x49

	retlw	0x97
	retlw	0x18
	retlw	0x4b

	retlw	0xbc
	retlw	0xbe
	retlw	0x4c

	retlw	0x6b
	retlw	0x6e
	retlw	0x4e

	retlw	0x3
	retlw	0x15
	retlw	0x50

	retlw	0x79
	retlw	0xad
	retlw	0x60

	retlw	0xf3
	retlw	0x49
	retlw	0x71

	global	_dpowers
psect	strings
	file	"C:\Program Files (x86)\HI-TECH Software\PICC\9.82\lib\doprnt.c"
	line	350
_dpowers:
	retlw	01h
	retlw	0
	retlw	0
	retlw	0

	retlw	0Ah
	retlw	0
	retlw	0
	retlw	0

	retlw	064h
	retlw	0
	retlw	0
	retlw	0

	retlw	0E8h
	retlw	03h
	retlw	0
	retlw	0

	retlw	010h
	retlw	027h
	retlw	0
	retlw	0

	retlw	0A0h
	retlw	086h
	retlw	01h
	retlw	0

	retlw	040h
	retlw	042h
	retlw	0Fh
	retlw	0

	retlw	080h
	retlw	096h
	retlw	098h
	retlw	0

	retlw	0
	retlw	0E1h
	retlw	0F5h
	retlw	05h

	retlw	0
	retlw	0CAh
	retlw	09Ah
	retlw	03Bh

	global	__npowers_
	global	__powers_
	global	_dpowers
	global	_num
	global	_nin
	global	_input
	global	_ADCON0
_ADCON0	set	31
	global	_ADRESH
_ADRESH	set	30
	global	_CCP1CON
_CCP1CON	set	23
	global	_CCP2CON
_CCP2CON	set	29
	global	_CCPR1L
_CCPR1L	set	21
	global	_PORTD
_PORTD	set	8
	global	_RCREG
_RCREG	set	26
	global	_RCSTA
_RCSTA	set	24
	global	_TMR0
_TMR0	set	1
	global	_TXREG
_TXREG	set	25
	global	_GO_DONE
_GO_DONE	set	249
	global	_RA6
_RA6	set	46
	global	_RA7
_RA7	set	47
	global	_RCIF
_RCIF	set	101
	global	_RE1
_RE1	set	73
	global	_T0IF
_T0IF	set	90
	global	_T2CKPS0
_T2CKPS0	set	144
	global	_T2CKPS1
_T2CKPS1	set	145
	global	_TMR2ON
_TMR2ON	set	146
	global	_TXIF
_TXIF	set	100
	global	_ADCON1
_ADCON1	set	159
	global	_ADRESL
_ADRESL	set	158
	global	_OPTION_REG
_OPTION_REG	set	129
	global	_OSCCON
_OSCCON	set	143
	global	_PR2
_PR2	set	146
	global	_SPBRG
_SPBRG	set	153
	global	_TRISA
_TRISA	set	133
	global	_TRISB
_TRISB	set	134
	global	_TRISD
_TRISD	set	136
	global	_TRISE
_TRISE	set	137
	global	_TXSTA
_TXSTA	set	152
	global	_TRISC6
_TRISC6	set	1086
	global	_TRISC7
_TRISC7	set	1087
	global	_ANSEL
_ANSEL	set	392
	global	_ANSELH
_ANSELH	set	393
	global	_BAUDCTL
_BAUDCTL	set	391
	global	_PORTA
_PORTA	set	5
	
STR_1:	
	retlw	69	;'E'
	retlw	108	;'l'
	retlw	32	;' '
	retlw	118	;'v'
	retlw	97	;'a'
	retlw	108	;'l'
	retlw	111	;'o'
	retlw	114	;'r'
	retlw	32	;' '
	retlw	101	;'e'
	retlw	115	;'s'
	retlw	58	;':'
	retlw	32	;' '
	retlw	37	;'%'
	retlw	102	;'f'
	retlw	32	;' '
	retlw	32	;' '
	retlw	0
psect	strings
	file	"C_PuertoSerial_usar.as"
	line	#
psect cinit,class=CODE,delta=2
global start_initialization
start_initialization:

psect	bssBANK1,class=BANK1,space=1
global __pbssBANK1
__pbssBANK1:
_num:
       ds      3

_nin:
       ds      2

_input:
       ds      17

psect clrtext,class=CODE,delta=2
global clear_ram
;	Called with FSR containing the base address, and
;	W with the last address+1
clear_ram:
	clrwdt			;clear the watchdog before getting into this loop
clrloop:
	clrf	indf		;clear RAM location pointed to by FSR
	incf	fsr,f		;increment pointer
	xorwf	fsr,w		;XOR with final address
	btfsc	status,2	;have we reached the end yet?
	retlw	0		;all done for this memory range, return
	xorwf	fsr,w		;XOR again to restore value
	goto	clrloop		;do the next byte

; Clear objects allocated to BANK1
psect cinit,class=CODE,delta=2
	bcf	status, 7	;select IRP bank0
	movlw	low(__pbssBANK1)
	movwf	fsr
	movlw	low((__pbssBANK1)+016h)
	fcall	clear_ram
psect cinit,class=CODE,delta=2
global end_of_initialization

;End of C runtime variable initialization code

end_of_initialization:
clrf status
ljmp _main	;jump to C main() function
psect	cstackBANK1,class=BANK1,space=1
global __pcstackBANK1
__pcstackBANK1:
	global	_sprintf$1890
_sprintf$1890:	; 4 bytes @ 0x0
	ds	4
	global	sprintf@ap
sprintf@ap:	; 1 bytes @ 0x4
	ds	1
	global	sprintf@flag
sprintf@flag:	; 2 bytes @ 0x5
	ds	2
	global	sprintf@prec
sprintf@prec:	; 2 bytes @ 0x7
	ds	2
	global	sprintf@_val
sprintf@_val:	; 4 bytes @ 0x9
	ds	4
	global	sprintf@integ
sprintf@integ:	; 3 bytes @ 0xD
	ds	3
	global	sprintf@sp
sprintf@sp:	; 1 bytes @ 0x10
	ds	1
	global	sprintf@exp
sprintf@exp:	; 2 bytes @ 0x11
	ds	2
	global	sprintf@fval
sprintf@fval:	; 3 bytes @ 0x13
	ds	3
	global	sprintf@c
sprintf@c:	; 1 bytes @ 0x16
	ds	1
	global	main@buffer
main@buffer:	; 15 bytes @ 0x17
	ds	15
	global	main@i
main@i:	; 2 bytes @ 0x26
	ds	2
	global	main@i_1825
main@i_1825:	; 2 bytes @ 0x28
	ds	2
	global	main@x
main@x:	; 1 bytes @ 0x2A
	ds	1
	global	main@x_1829
main@x_1829:	; 1 bytes @ 0x2B
	ds	1
psect	cstackCOMMON,class=COMMON,space=1
global __pcstackCOMMON
__pcstackCOMMON:
	global	?_putch
?_putch:	; 0 bytes @ 0x0
	global	??_putch
??_putch:	; 0 bytes @ 0x0
	global	?_gets_Serial
?_gets_Serial:	; 0 bytes @ 0x0
	global	??_gets_Serial
??_gets_Serial:	; 0 bytes @ 0x0
	global	?_msecbase
?_msecbase:	; 0 bytes @ 0x0
	global	??_msecbase
??_msecbase:	; 0 bytes @ 0x0
	global	?_pause
?_pause:	; 0 bytes @ 0x0
	global	?_lcd_write
?_lcd_write:	; 0 bytes @ 0x0
	global	?_lcd_clear
?_lcd_clear:	; 0 bytes @ 0x0
	global	?_lcd_puts
?_lcd_puts:	; 0 bytes @ 0x0
	global	?_lcd_goto
?_lcd_goto:	; 0 bytes @ 0x0
	global	?_main
?_main:	; 0 bytes @ 0x0
	global	??_getch
??_getch:	; 0 bytes @ 0x0
	global	?___ftge
?___ftge:	; 1 bit 
	global	?_getch
?_getch:	; 1 bytes @ 0x0
	global	?___lbmod
?___lbmod:	; 1 bytes @ 0x0
	global	?___wmul
?___wmul:	; 2 bytes @ 0x0
	global	?___awmod
?___awmod:	; 2 bytes @ 0x0
	global	?___ftpack
?___ftpack:	; 3 bytes @ 0x0
	global	?___ftneg
?___ftneg:	; 3 bytes @ 0x0
	global	?__tdiv_to_l_
?__tdiv_to_l_:	; 4 bytes @ 0x0
	global	?__div_to_l_
?__div_to_l_:	; 4 bytes @ 0x0
	global	?___lldiv
?___lldiv:	; 4 bytes @ 0x0
	global	putch@dato
putch@dato:	; 1 bytes @ 0x0
	global	___lbmod@divisor
___lbmod@divisor:	; 1 bytes @ 0x0
	global	pause@msvalue
pause@msvalue:	; 2 bytes @ 0x0
	global	___wmul@multiplier
___wmul@multiplier:	; 2 bytes @ 0x0
	global	___awmod@divisor
___awmod@divisor:	; 2 bytes @ 0x0
	global	___ftneg@f1
___ftneg@f1:	; 3 bytes @ 0x0
	global	___ftge@ff1
___ftge@ff1:	; 3 bytes @ 0x0
	global	__tdiv_to_l_@f1
__tdiv_to_l_@f1:	; 3 bytes @ 0x0
	global	__div_to_l_@f1
__div_to_l_@f1:	; 3 bytes @ 0x0
	global	___ftpack@arg
___ftpack@arg:	; 3 bytes @ 0x0
	global	___lldiv@divisor
___lldiv@divisor:	; 4 bytes @ 0x0
	ds	1
	global	??___lbmod
??___lbmod:	; 0 bytes @ 0x1
	global	gets_Serial@s
gets_Serial@s:	; 1 bytes @ 0x1
	ds	1
	global	??_pause
??_pause:	; 0 bytes @ 0x2
	global	___lbmod@dividend
___lbmod@dividend:	; 1 bytes @ 0x2
	global	pause@x
pause@x:	; 2 bytes @ 0x2
	global	gets_Serial@i
gets_Serial@i:	; 2 bytes @ 0x2
	global	___wmul@multiplicand
___wmul@multiplicand:	; 2 bytes @ 0x2
	global	___awmod@dividend
___awmod@dividend:	; 2 bytes @ 0x2
	ds	1
	global	??___ftneg
??___ftneg:	; 0 bytes @ 0x3
	global	___lbmod@counter
___lbmod@counter:	; 1 bytes @ 0x3
	global	___ftpack@exp
___ftpack@exp:	; 1 bytes @ 0x3
	global	___ftge@ff2
___ftge@ff2:	; 3 bytes @ 0x3
	global	__tdiv_to_l_@f2
__tdiv_to_l_@f2:	; 3 bytes @ 0x3
	global	__div_to_l_@f2
__div_to_l_@f2:	; 3 bytes @ 0x3
	ds	1
	global	??_lcd_write
??_lcd_write:	; 0 bytes @ 0x4
	global	??___wmul
??___wmul:	; 0 bytes @ 0x4
	global	??___awmod
??___awmod:	; 0 bytes @ 0x4
	global	lcd_write@c
lcd_write@c:	; 1 bytes @ 0x4
	global	___lbmod@rem
___lbmod@rem:	; 1 bytes @ 0x4
	global	___awmod@counter
___awmod@counter:	; 1 bytes @ 0x4
	global	___ftpack@sign
___ftpack@sign:	; 1 bytes @ 0x4
	global	gets_Serial@i_1836
gets_Serial@i_1836:	; 2 bytes @ 0x4
	global	___wmul@product
___wmul@product:	; 2 bytes @ 0x4
	global	___lldiv@dividend
___lldiv@dividend:	; 4 bytes @ 0x4
	ds	1
	global	??___ftpack
??___ftpack:	; 0 bytes @ 0x5
	global	??_lcd_clear
??_lcd_clear:	; 0 bytes @ 0x5
	global	??_lcd_puts
??_lcd_puts:	; 0 bytes @ 0x5
	global	??_lcd_goto
??_lcd_goto:	; 0 bytes @ 0x5
	global	?___lbdiv
?___lbdiv:	; 1 bytes @ 0x5
	global	lcd_puts@s
lcd_puts@s:	; 1 bytes @ 0x5
	global	lcd_goto@pos
lcd_goto@pos:	; 1 bytes @ 0x5
	global	___lbdiv@divisor
___lbdiv@divisor:	; 1 bytes @ 0x5
	global	___awmod@sign
___awmod@sign:	; 1 bytes @ 0x5
	ds	1
	global	??__tdiv_to_l_
??__tdiv_to_l_:	; 0 bytes @ 0x6
	global	??__div_to_l_
??__div_to_l_:	; 0 bytes @ 0x6
	global	??___lbdiv
??___lbdiv:	; 0 bytes @ 0x6
	global	??___ftge
??___ftge:	; 0 bytes @ 0x6
	global	?___awdiv
?___awdiv:	; 2 bytes @ 0x6
	global	gets_Serial@c
gets_Serial@c:	; 1 bytes @ 0x6
	global	___lbdiv@dividend
___lbdiv@dividend:	; 1 bytes @ 0x6
	global	___awdiv@divisor
___awdiv@divisor:	; 2 bytes @ 0x6
	ds	1
	global	___lbdiv@counter
___lbdiv@counter:	; 1 bytes @ 0x7
	ds	1
	global	??___lldiv
??___lldiv:	; 0 bytes @ 0x8
	global	?___awtoft
?___awtoft:	; 3 bytes @ 0x8
	global	?___lltoft
?___lltoft:	; 3 bytes @ 0x8
	global	___lbdiv@quotient
___lbdiv@quotient:	; 1 bytes @ 0x8
	global	___awtoft@c
___awtoft@c:	; 2 bytes @ 0x8
	global	___awdiv@dividend
___awdiv@dividend:	; 2 bytes @ 0x8
	global	___lldiv@quotient
___lldiv@quotient:	; 4 bytes @ 0x8
	global	___lltoft@c
___lltoft@c:	; 4 bytes @ 0x8
	ds	1
	global	?___bmul
?___bmul:	; 1 bytes @ 0x9
	global	___bmul@multiplicand
___bmul@multiplicand:	; 1 bytes @ 0x9
	ds	1
	global	??___bmul
??___bmul:	; 0 bytes @ 0xA
	global	??___awdiv
??___awdiv:	; 0 bytes @ 0xA
	global	___bmul@product
___bmul@product:	; 1 bytes @ 0xA
	global	___awdiv@counter
___awdiv@counter:	; 1 bytes @ 0xA
	ds	1
	global	??___awtoft
??___awtoft:	; 0 bytes @ 0xB
	global	___bmul@multiplier
___bmul@multiplier:	; 1 bytes @ 0xB
	global	___awtoft@sign
___awtoft@sign:	; 1 bytes @ 0xB
	global	___awdiv@sign
___awdiv@sign:	; 1 bytes @ 0xB
	ds	1
	global	??___lltoft
??___lltoft:	; 0 bytes @ 0xC
	global	___lldiv@counter
___lldiv@counter:	; 1 bytes @ 0xC
	global	___lltoft@exp
___lltoft@exp:	; 1 bytes @ 0xC
	global	___awdiv@quotient
___awdiv@quotient:	; 2 bytes @ 0xC
	ds	1
	global	??___llmod
??___llmod:	; 0 bytes @ 0xD
	global	___llmod@counter
___llmod@counter:	; 1 bytes @ 0xD
	ds	1
	global	??_fround
??_fround:	; 0 bytes @ 0xE
	global	??___ftsub
??___ftsub:	; 0 bytes @ 0xE
psect	cstackBANK0,class=BANK0,space=1
global __pcstackBANK0
__pcstackBANK0:
	global	?___fttol
?___fttol:	; 4 bytes @ 0x0
	global	?___llmod
?___llmod:	; 4 bytes @ 0x0
	global	___fttol@f1
___fttol@f1:	; 3 bytes @ 0x0
	global	___llmod@divisor
___llmod@divisor:	; 4 bytes @ 0x0
	global	__tdiv_to_l_@quot
__tdiv_to_l_@quot:	; 4 bytes @ 0x0
	global	__div_to_l_@quot
__div_to_l_@quot:	; 4 bytes @ 0x0
	ds	4
	global	??___fttol
??___fttol:	; 0 bytes @ 0x4
	global	__tdiv_to_l_@cntr
__tdiv_to_l_@cntr:	; 1 bytes @ 0x4
	global	__div_to_l_@cntr
__div_to_l_@cntr:	; 1 bytes @ 0x4
	global	___llmod@dividend
___llmod@dividend:	; 4 bytes @ 0x4
	ds	1
	global	__tdiv_to_l_@exp1
__tdiv_to_l_@exp1:	; 1 bytes @ 0x5
	global	__div_to_l_@exp1
__div_to_l_@exp1:	; 1 bytes @ 0x5
	ds	2
	global	___fttol@sign1
___fttol@sign1:	; 1 bytes @ 0x7
	ds	1
	global	___fttol@lval
___fttol@lval:	; 4 bytes @ 0x8
	ds	4
	global	___fttol@exp1
___fttol@exp1:	; 1 bytes @ 0xC
	ds	1
	global	?___ftmul
?___ftmul:	; 3 bytes @ 0xD
	global	___ftmul@f1
___ftmul@f1:	; 3 bytes @ 0xD
	ds	3
	global	___ftmul@f2
___ftmul@f2:	; 3 bytes @ 0x10
	ds	3
	global	??___ftmul
??___ftmul:	; 0 bytes @ 0x13
	ds	3
	global	___ftmul@exp
___ftmul@exp:	; 1 bytes @ 0x16
	ds	1
	global	___ftmul@f3_as_product
___ftmul@f3_as_product:	; 3 bytes @ 0x17
	ds	3
	global	___ftmul@cntr
___ftmul@cntr:	; 1 bytes @ 0x1A
	ds	1
	global	___ftmul@sign
___ftmul@sign:	; 1 bytes @ 0x1B
	ds	1
	global	?_scale
?_scale:	; 3 bytes @ 0x1C
	global	?___ftadd
?___ftadd:	; 3 bytes @ 0x1C
	global	___ftadd@f1
___ftadd@f1:	; 3 bytes @ 0x1C
	ds	3
	global	??_scale
??_scale:	; 0 bytes @ 0x1F
	global	___ftadd@f2
___ftadd@f2:	; 3 bytes @ 0x1F
	ds	3
	global	??___ftadd
??___ftadd:	; 0 bytes @ 0x22
	ds	1
	global	_scale$2837
_scale$2837:	; 3 bytes @ 0x23
	ds	2
	global	___ftadd@sign
___ftadd@sign:	; 1 bytes @ 0x25
	ds	1
	global	scale@scl
scale@scl:	; 1 bytes @ 0x26
	global	___ftadd@exp2
___ftadd@exp2:	; 1 bytes @ 0x26
	ds	1
	global	___ftadd@exp1
___ftadd@exp1:	; 1 bytes @ 0x27
	ds	1
	global	?_fround
?_fround:	; 3 bytes @ 0x28
	global	?___ftsub
?___ftsub:	; 3 bytes @ 0x28
	global	___ftsub@f2
___ftsub@f2:	; 3 bytes @ 0x28
	ds	3
	global	___ftsub@f1
___ftsub@f1:	; 3 bytes @ 0x2B
	global	_fround$2836
_fround$2836:	; 3 bytes @ 0x2B
	ds	3
	global	_fround$2835
_fround$2835:	; 3 bytes @ 0x2E
	ds	3
	global	fround@prec
fround@prec:	; 1 bytes @ 0x31
	ds	1
	global	?_sprintf
?_sprintf:	; 2 bytes @ 0x32
	global	sprintf@f
sprintf@f:	; 1 bytes @ 0x32
	ds	4
	global	??_sprintf
??_sprintf:	; 0 bytes @ 0x36
	ds	5
	global	??_main
??_main:	; 0 bytes @ 0x3B
	ds	1
;;Data sizes: Strings 18, constant 118, data 0, bss 22, persistent 0 stack 0
;;Auto spaces:   Size  Autos    Used
;; COMMON          14     14      14
;; BANK0           80     60      60
;; BANK1           80     44      66
;; BANK3           96      0       0
;; BANK2           96      0       0

;;
;; Pointer list with targets:

;; ?___ftpack	float  size(1) Largest target is 0
;;
;; ?___lldiv	unsigned long  size(1) Largest target is 0
;;
;; ?___llmod	unsigned long  size(1) Largest target is 0
;;
;; ?___ftsub	float  size(1) Largest target is 0
;;
;; ?___lltoft	float  size(1) Largest target is 0
;;
;; ?__tdiv_to_l_	unsigned long  size(1) Largest target is 0
;;
;; ?__div_to_l_	unsigned long  size(1) Largest target is 0
;;
;; ?___fttol	long  size(1) Largest target is 0
;;
;; ?___ftadd	float  size(1) Largest target is 0
;;
;; ?___ftneg	float  size(1) Largest target is 0
;;
;; ?___awmod	int  size(1) Largest target is 40
;;		 -> dpowers(CODE[40]), 
;;
;; ?___awdiv	int  size(1) Largest target is 0
;;
;; ?_scale	int  size(1) Largest target is 0
;;
;; ?___wmul	unsigned int  size(1) Largest target is 0
;;
;; ?_fround	unsigned int  size(1) Largest target is 0
;;
;; ?___ftmul	float  size(1) Largest target is 0
;;
;; ?___awtoft	float  size(1) Largest target is 0
;;
;; sprintf@f	PTR const unsigned char  size(1) Largest target is 18
;;		 -> STR_1(CODE[18]), 
;;
;; sprintf@sp	PTR unsigned char  size(1) Largest target is 15
;;		 -> main@buffer(BANK1[15]), 
;;
;; ?_sprintf	int  size(1) Largest target is 0
;;
;; sprintf@ap	PTR void [1] size(1) Largest target is 2
;;		 -> ?_sprintf(BANK0[2]), 
;;
;; S1879$_cp	PTR const unsigned char  size(1) Largest target is 0
;;
;; _val._str._cp	PTR const unsigned char  size(1) Largest target is 0
;;
;; gets_Serial@s	PTR unsigned char  size(1) Largest target is 17
;;		 -> input(BANK1[17]), main@buffer(BANK1[15]), 
;;
;; lcd_puts@s	PTR const unsigned char  size(1) Largest target is 17
;;		 -> input(BANK1[17]), main@buffer(BANK1[15]), 
;;
;; pa	PTR unsigned char  size(1) Largest target is 1
;;		 -> PORTA(BITSFR0[1]), 
;;


;;
;; Critical Paths under _main in COMMON
;;
;;   _sprintf->___awdiv
;;   _sprintf->__div_to_l_
;;   _sprintf->___llmod
;;   _lcd_goto->_lcd_write
;;   _lcd_puts->_lcd_write
;;   _lcd_clear->_lcd_write
;;   _scale->___awdiv
;;   _lcd_write->_pause
;;   ___lltoft->___ftpack
;;   ___awtoft->___ftpack
;;   ___ftmul->___awdiv
;;   ___llmod->___lldiv
;;   ___awdiv->___awmod
;;   ___fttol->___awdiv
;;   ___lbdiv->___lbmod
;;   ___bmul->___lbdiv
;;
;; Critical Paths under _main in BANK0
;;
;;   _main->_sprintf
;;   _sprintf->_fround
;;   ___ftsub->___ftadd
;;   _scale->___ftmul
;;   _fround->___ftadd
;;   ___ftmul->___fttol
;;   ___ftadd->___ftmul
;;
;; Critical Paths under _main in BANK1
;;
;;   _main->_sprintf
;;
;; Critical Paths under _main in BANK3
;;
;;   None.
;;
;; Critical Paths under _main in BANK2
;;
;;   None.

;;
;;Main: autosize = 0, tempsize = 1, incstack = 0, save=0
;;

;;
;;Call Graph Tables:
;;
;; ---------------------------------------------------------------------------------
;; (Depth) Function   	        Calls       Base Space   Used Autos Params    Refs
;; ---------------------------------------------------------------------------------
;; (0) _main                                                27    27      0   11265
;;                                             59 BANK0      1     1      0
;;                                             23 BANK1     21    21      0
;;                              _pause
;;                          _lcd_write
;;                          _lcd_clear
;;                              _putch
;;                        _gets_Serial
;;                           ___awtoft
;;                            ___ftmul
;;                            _sprintf
;;                           _lcd_goto
;;                           _lcd_puts
;; ---------------------------------------------------------------------------------
;; (1) _sprintf                                             38    34      4    9257
;;                                             50 BANK0      9     5      4
;;                                              0 BANK1     23    23      0
;;                             ___ftge
;;                            ___ftneg
;;                             ___wmul
;;                            ___awdiv
;;                              _scale
;;                            ___ftmul
;;                             _fround
;;                            ___ftadd
;;                            ___fttol
;;                         __div_to_l_
;;                        __tdiv_to_l_
;;                           ___lltoft
;;                            ___ftsub
;;                            ___lldiv
;;                            ___llmod
;; ---------------------------------------------------------------------------------
;; (1) _lcd_goto                                             1     1      0     112
;;                                              5 COMMON     1     1      0
;;                          _lcd_write
;; ---------------------------------------------------------------------------------
;; (1) _lcd_puts                                             1     1      0     135
;;                                              5 COMMON     1     1      0
;;                          _lcd_write
;; ---------------------------------------------------------------------------------
;; (1) _lcd_clear                                            0     0      0     136
;;                          _lcd_write
;;                              _pause
;; ---------------------------------------------------------------------------------
;; (2) ___ftsub                                              6     0      6    1094
;;                                             40 BANK0      6     0      6
;;                            ___ftadd
;;                           ___lltoft (ARG)
;; ---------------------------------------------------------------------------------
;; (2) _scale                                               14    11      3    1688
;;                                             28 BANK0     11     8      3
;;                            ___awmod
;;                            ___awdiv
;;                            ___ftmul
;;                             ___bmul
;;                            ___fttol (ARG)
;; ---------------------------------------------------------------------------------
;; (2) _fround                                              13    10      3    1215
;;                                             40 BANK0     10     7      3
;;                            ___lbmod
;;                             ___bmul
;;                            ___lbdiv
;;                            ___ftmul
;;                            ___ftadd (ARG)
;; ---------------------------------------------------------------------------------
;; (2) _lcd_write                                            1     1      0      90
;;                                              4 COMMON     1     1      0
;;                              _pause
;; ---------------------------------------------------------------------------------
;; (2) ___lltoft                                             5     1      4     278
;;                                              8 COMMON     5     1      4
;;                           ___ftpack
;; ---------------------------------------------------------------------------------
;; (1) ___awtoft                                             4     1      3     300
;;                                              8 COMMON     4     1      3
;;                           ___ftpack
;; ---------------------------------------------------------------------------------
;; (3) ___ftmul                                             15     9      6     535
;;                                             13 BANK0     15     9      6
;;                           ___ftpack
;;                           ___awtoft (ARG)
;;                            ___fttol (ARG)
;;                            ___awdiv (ARG)
;;                            ___awmod (ARG)
;;                             ___bmul (ARG)
;;                            ___lbdiv (ARG)
;;                            ___lbmod (ARG)
;; ---------------------------------------------------------------------------------
;; (3) ___ftadd                                             12     6      6    1049
;;                                             28 BANK0     12     6      6
;;                           ___ftpack
;;                            ___lbmod (ARG)
;;                             ___bmul (ARG)
;;                            ___lbdiv (ARG)
;;                            ___ftmul (ARG)
;; ---------------------------------------------------------------------------------
;; (1) _gets_Serial                                          7     7      0     247
;;                                              0 COMMON     7     7      0
;;                              _getch
;; ---------------------------------------------------------------------------------
;; (3) _pause                                                4     2      2      46
;;                                              0 COMMON     4     2      2
;;                           _msecbase
;; ---------------------------------------------------------------------------------
;; (3) ___awmod                                              6     2      4     296
;;                                              0 COMMON     6     2      4
;; ---------------------------------------------------------------------------------
;; (2) ___lldiv                                             13     5      8     162
;;                                              0 COMMON    13     5      8
;; ---------------------------------------------------------------------------------
;; (2) ___ftge                                               6     0      6     136
;;                                              0 COMMON     6     0      6
;; ---------------------------------------------------------------------------------
;; (2) ___ftneg                                              3     0      3      45
;;                                              0 COMMON     3     0      3
;; ---------------------------------------------------------------------------------
;; (2) ___llmod                                              9     1      8     159
;;                                             13 COMMON     1     1      0
;;                                              0 BANK0      8     0      8
;;                            ___lldiv (ARG)
;; ---------------------------------------------------------------------------------
;; (3) ___awdiv                                              8     4      4     300
;;                                              6 COMMON     8     4      4
;;                            ___awmod (ARG)
;; ---------------------------------------------------------------------------------
;; (2) ___fttol                                             13     9      4     252
;;                                              0 BANK0     13     9      4
;;                           ___ftpack (ARG)
;;                            ___awmod (ARG)
;;                            ___awdiv (ARG)
;;                             ___bmul (ARG)
;; ---------------------------------------------------------------------------------
;; (4) ___ftpack                                             8     3      5     209
;;                                              0 COMMON     8     3      5
;; ---------------------------------------------------------------------------------
;; (3) ___lbmod                                              5     4      1     159
;;                                              0 COMMON     5     4      1
;; ---------------------------------------------------------------------------------
;; (3) ___lbdiv                                              4     3      1     162
;;                                              5 COMMON     4     3      1
;;                            ___lbmod (ARG)
;; ---------------------------------------------------------------------------------
;; (2) ___wmul                                               6     2      4      92
;;                                              0 COMMON     6     2      4
;; ---------------------------------------------------------------------------------
;; (3) ___bmul                                               3     2      1      68
;;                                              9 COMMON     3     2      1
;;                            ___lbmod (ARG)
;;                            ___lbdiv (ARG)
;; ---------------------------------------------------------------------------------
;; (2) __div_to_l_                                          20    14      6     446
;;                                              0 COMMON    14     8      6
;;                                              0 BANK0      6     6      0
;; ---------------------------------------------------------------------------------
;; (2) __tdiv_to_l_                                         15     9      6     303
;;                                              0 COMMON     9     3      6
;;                                              0 BANK0      6     6      0
;; ---------------------------------------------------------------------------------
;; (2) _getch                                                0     0      0       0
;; ---------------------------------------------------------------------------------
;; (1) _putch                                                1     1      0      22
;;                                              0 COMMON     1     1      0
;; ---------------------------------------------------------------------------------
;; (4) _msecbase                                             0     0      0       0
;; ---------------------------------------------------------------------------------
;; Estimated maximum stack depth 4
;; ---------------------------------------------------------------------------------

;; Call Graph Graphs:

;; _main (ROOT)
;;   _pause
;;     _msecbase
;;   _lcd_write
;;     _pause
;;       _msecbase
;;   _lcd_clear
;;     _lcd_write
;;       _pause
;;         _msecbase
;;     _pause
;;       _msecbase
;;   _putch
;;   _gets_Serial
;;     _getch
;;   ___awtoft
;;     ___ftpack
;;   ___ftmul
;;     ___ftpack
;;     ___awtoft (ARG)
;;       ___ftpack
;;     ___fttol (ARG)
;;       ___ftpack (ARG)
;;       ___awmod (ARG)
;;       ___awdiv (ARG)
;;         ___awmod (ARG)
;;       ___bmul (ARG)
;;         ___lbmod (ARG)
;;         ___lbdiv (ARG)
;;           ___lbmod (ARG)
;;     ___awdiv (ARG)
;;       ___awmod (ARG)
;;     ___awmod (ARG)
;;     ___bmul (ARG)
;;       ___lbmod (ARG)
;;       ___lbdiv (ARG)
;;         ___lbmod (ARG)
;;     ___lbdiv (ARG)
;;       ___lbmod (ARG)
;;     ___lbmod (ARG)
;;   _sprintf
;;     ___ftge
;;     ___ftneg
;;     ___wmul
;;     ___awdiv
;;       ___awmod (ARG)
;;     _scale
;;       ___awmod
;;       ___awdiv
;;         ___awmod (ARG)
;;       ___ftmul
;;         ___ftpack
;;         ___awtoft (ARG)
;;           ___ftpack
;;         ___fttol (ARG)
;;           ___ftpack (ARG)
;;           ___awmod (ARG)
;;           ___awdiv (ARG)
;;             ___awmod (ARG)
;;           ___bmul (ARG)
;;             ___lbmod (ARG)
;;             ___lbdiv (ARG)
;;               ___lbmod (ARG)
;;         ___awdiv (ARG)
;;           ___awmod (ARG)
;;         ___awmod (ARG)
;;         ___bmul (ARG)
;;           ___lbmod (ARG)
;;           ___lbdiv (ARG)
;;             ___lbmod (ARG)
;;         ___lbdiv (ARG)
;;           ___lbmod (ARG)
;;         ___lbmod (ARG)
;;       ___bmul
;;         ___lbmod (ARG)
;;         ___lbdiv (ARG)
;;           ___lbmod (ARG)
;;       ___fttol (ARG)
;;         ___ftpack (ARG)
;;         ___awmod (ARG)
;;         ___awdiv (ARG)
;;           ___awmod (ARG)
;;         ___bmul (ARG)
;;           ___lbmod (ARG)
;;           ___lbdiv (ARG)
;;             ___lbmod (ARG)
;;     ___ftmul
;;       ___ftpack
;;       ___awtoft (ARG)
;;         ___ftpack
;;       ___fttol (ARG)
;;         ___ftpack (ARG)
;;         ___awmod (ARG)
;;         ___awdiv (ARG)
;;           ___awmod (ARG)
;;         ___bmul (ARG)
;;           ___lbmod (ARG)
;;           ___lbdiv (ARG)
;;             ___lbmod (ARG)
;;       ___awdiv (ARG)
;;         ___awmod (ARG)
;;       ___awmod (ARG)
;;       ___bmul (ARG)
;;         ___lbmod (ARG)
;;         ___lbdiv (ARG)
;;           ___lbmod (ARG)
;;       ___lbdiv (ARG)
;;         ___lbmod (ARG)
;;       ___lbmod (ARG)
;;     _fround
;;       ___lbmod
;;       ___bmul
;;         ___lbmod (ARG)
;;         ___lbdiv (ARG)
;;           ___lbmod (ARG)
;;       ___lbdiv
;;         ___lbmod (ARG)
;;       ___ftmul
;;         ___ftpack
;;         ___awtoft (ARG)
;;           ___ftpack
;;         ___fttol (ARG)
;;           ___ftpack (ARG)
;;           ___awmod (ARG)
;;           ___awdiv (ARG)
;;             ___awmod (ARG)
;;           ___bmul (ARG)
;;             ___lbmod (ARG)
;;             ___lbdiv (ARG)
;;               ___lbmod (ARG)
;;         ___awdiv (ARG)
;;           ___awmod (ARG)
;;         ___awmod (ARG)
;;         ___bmul (ARG)
;;           ___lbmod (ARG)
;;           ___lbdiv (ARG)
;;             ___lbmod (ARG)
;;         ___lbdiv (ARG)
;;           ___lbmod (ARG)
;;         ___lbmod (ARG)
;;       ___ftadd (ARG)
;;         ___ftpack
;;         ___lbmod (ARG)
;;         ___bmul (ARG)
;;           ___lbmod (ARG)
;;           ___lbdiv (ARG)
;;             ___lbmod (ARG)
;;         ___lbdiv (ARG)
;;           ___lbmod (ARG)
;;         ___ftmul (ARG)
;;           ___ftpack
;;           ___awtoft (ARG)
;;             ___ftpack
;;           ___fttol (ARG)
;;             ___ftpack (ARG)
;;             ___awmod (ARG)
;;             ___awdiv (ARG)
;;               ___awmod (ARG)
;;             ___bmul (ARG)
;;               ___lbmod (ARG)
;;               ___lbdiv (ARG)
;;                 ___lbmod (ARG)
;;           ___awdiv (ARG)
;;             ___awmod (ARG)
;;           ___awmod (ARG)
;;           ___bmul (ARG)
;;             ___lbmod (ARG)
;;             ___lbdiv (ARG)
;;               ___lbmod (ARG)
;;           ___lbdiv (ARG)
;;             ___lbmod (ARG)
;;           ___lbmod (ARG)
;;     ___ftadd
;;       ___ftpack
;;       ___lbmod (ARG)
;;       ___bmul (ARG)
;;         ___lbmod (ARG)
;;         ___lbdiv (ARG)
;;           ___lbmod (ARG)
;;       ___lbdiv (ARG)
;;         ___lbmod (ARG)
;;       ___ftmul (ARG)
;;         ___ftpack
;;         ___awtoft (ARG)
;;           ___ftpack
;;         ___fttol (ARG)
;;           ___ftpack (ARG)
;;           ___awmod (ARG)
;;           ___awdiv (ARG)
;;             ___awmod (ARG)
;;           ___bmul (ARG)
;;             ___lbmod (ARG)
;;             ___lbdiv (ARG)
;;               ___lbmod (ARG)
;;         ___awdiv (ARG)
;;           ___awmod (ARG)
;;         ___awmod (ARG)
;;         ___bmul (ARG)
;;           ___lbmod (ARG)
;;           ___lbdiv (ARG)
;;             ___lbmod (ARG)
;;         ___lbdiv (ARG)
;;           ___lbmod (ARG)
;;         ___lbmod (ARG)
;;     ___fttol
;;       ___ftpack (ARG)
;;       ___awmod (ARG)
;;       ___awdiv (ARG)
;;         ___awmod (ARG)
;;       ___bmul (ARG)
;;         ___lbmod (ARG)
;;         ___lbdiv (ARG)
;;           ___lbmod (ARG)
;;     __div_to_l_
;;     __tdiv_to_l_
;;     ___lltoft
;;       ___ftpack
;;     ___ftsub
;;       ___ftadd
;;         ___ftpack
;;         ___lbmod (ARG)
;;         ___bmul (ARG)
;;           ___lbmod (ARG)
;;           ___lbdiv (ARG)
;;             ___lbmod (ARG)
;;         ___lbdiv (ARG)
;;           ___lbmod (ARG)
;;         ___ftmul (ARG)
;;           ___ftpack
;;           ___awtoft (ARG)
;;             ___ftpack
;;           ___fttol (ARG)
;;             ___ftpack (ARG)
;;             ___awmod (ARG)
;;             ___awdiv (ARG)
;;               ___awmod (ARG)
;;             ___bmul (ARG)
;;               ___lbmod (ARG)
;;               ___lbdiv (ARG)
;;                 ___lbmod (ARG)
;;           ___awdiv (ARG)
;;             ___awmod (ARG)
;;           ___awmod (ARG)
;;           ___bmul (ARG)
;;             ___lbmod (ARG)
;;             ___lbdiv (ARG)
;;               ___lbmod (ARG)
;;           ___lbdiv (ARG)
;;             ___lbmod (ARG)
;;           ___lbmod (ARG)
;;       ___lltoft (ARG)
;;         ___ftpack
;;     ___lldiv
;;     ___llmod
;;       ___lldiv (ARG)
;;   _lcd_goto
;;     _lcd_write
;;       _pause
;;         _msecbase
;;   _lcd_puts
;;     _lcd_write
;;       _pause
;;         _msecbase
;;

;; Address spaces:

;;Name               Size   Autos  Total    Cost      Usage
;;BITCOMMON            E      0       0       0        0.0%
;;EEDATA             100      0       0       0        0.0%
;;NULL                 0      0       0       0        0.0%
;;CODE                 0      0       0       0        0.0%
;;COMMON               E      E       E       1      100.0%
;;BITSFR0              0      0       0       1        0.0%
;;SFR0                 0      0       0       1        0.0%
;;BITSFR1              0      0       0       2        0.0%
;;SFR1                 0      0       0       2        0.0%
;;STACK                0      0       4       2        0.0%
;;ABS                  0      0      8C       3        0.0%
;;BITBANK0            50      0       0       4        0.0%
;;BITSFR3              0      0       0       4        0.0%
;;SFR3                 0      0       0       4        0.0%
;;BANK0               50     3C      3C       5       75.0%
;;BITSFR2              0      0       0       5        0.0%
;;SFR2                 0      0       0       5        0.0%
;;BITBANK1            50      0       0       6        0.0%
;;BANK1               50     2C      42       7       82.5%
;;BITBANK3            60      0       0       8        0.0%
;;BANK3               60      0       0       9        0.0%
;;BITBANK2            60      0       0      10        0.0%
;;BANK2               60      0       0      11        0.0%
;;DATA                 0      0      90      12        0.0%

	global	_main
psect	maintext,global,class=CODE,delta=2
global __pmaintext
__pmaintext:

;; *************** function _main *****************
;; Defined at:
;;		line 94 in file "C:\Users\petir\Documents\PIC_PROG\C_PuertoSerial\C_PuertoSerial_usart.c"
;; Parameters:    Size  Location     Type
;;		None
;; Auto vars:     Size  Location     Type
;;  x               1   43[BANK1 ] unsigned char 
;;  x               1   42[BANK1 ] unsigned char 
;;  num_f           2    0        int 
;;  i               2   40[BANK1 ] int 
;;  i               2   38[BANK1 ] int 
;;  buffer         15   23[BANK1 ] unsigned char [15]
;;  pos             1    0        unsigned char 
;;  char_pwm        1    0        unsigned char 
;;  char_recibid    1    0        unsigned char 
;; Return value:  Size  Location     Type
;;		None               void
;; Registers used:
;;		wreg, fsr0l, fsr0h, status,2, status,0, btemp+1, pclath, cstack
;; Tracked objects:
;;		On entry : 17F/0
;;		On exit  : 160/0
;;		Unchanged: FFE00/0
;; Data sizes:     COMMON   BANK0   BANK1   BANK3   BANK2
;;      Params:         0       0       0       0       0
;;      Locals:         0       0      21       0       0
;;      Temps:          0       1       0       0       0
;;      Totals:         0       1      21       0       0
;;Total ram usage:       22 bytes
;; Hardware stack levels required when called:    4
;; This function calls:
;;		_pause
;;		_lcd_write
;;		_lcd_clear
;;		_putch
;;		_gets_Serial
;;		___awtoft
;;		___ftmul
;;		_sprintf
;;		_lcd_goto
;;		_lcd_puts
;; This function is called by:
;;		Startup code after reset
;; This function uses a non-reentrant model
;;
psect	maintext
	file	"C:\Users\petir\Documents\PIC_PROG\C_PuertoSerial\C_PuertoSerial_usart.c"
	line	94
	global	__size_of_main
	__size_of_main	equ	__end_of_main-_main
	
_main:	
	opt	stack 4
; Regs used in _main: [wreg-fsr0h+status,2+status,0+btemp+1+pclath+cstack]
	line	95
	
l5503:	
;C_PuertoSerial_usart.c: 95: ANSEL=0x00;
	bsf	status, 5	;RP0=1, select bank3
	bsf	status, 6	;RP1=1, select bank3
	clrf	(392)^0180h	;volatile
	line	96
;C_PuertoSerial_usart.c: 96: ANSELH=0x00;
	clrf	(393)^0180h	;volatile
	line	98
;C_PuertoSerial_usart.c: 98: TRISA = 0x00;
	bcf	status, 6	;RP1=0, select bank1
	clrf	(133)^080h	;volatile
	line	99
;C_PuertoSerial_usart.c: 99: TRISB = 0x00;
	clrf	(134)^080h	;volatile
	line	100
;C_PuertoSerial_usart.c: 100: TRISD = 0x00;
	clrf	(136)^080h	;volatile
	line	103
	
l5505:	
;C_PuertoSerial_usart.c: 103: TRISE=0x03;
	movlw	(03h)
	movwf	(137)^080h	;volatile
	line	104
	
l5507:	
;C_PuertoSerial_usart.c: 104: ADCON1=0b00000000;
	clrf	(159)^080h	;volatile
	line	105
;C_PuertoSerial_usart.c: 105: PR2=0xFF;
	movlw	(0FFh)
	movwf	(146)^080h	;volatile
	line	107
;C_PuertoSerial_usart.c: 107: CCP1CON = 0xC0;
	movlw	(0C0h)
	bcf	status, 5	;RP0=0, select bank0
	movwf	(23)	;volatile
	line	108
;C_PuertoSerial_usart.c: 108: CCP2CON = 0xC0;
	movlw	(0C0h)
	movwf	(29)	;volatile
	line	109
	
l5509:	
;C_PuertoSerial_usart.c: 109: T2CKPS1 = 1;
	bsf	(145/8),(145)&7
	line	110
	
l5511:	
;C_PuertoSerial_usart.c: 110: T2CKPS0 = 1;
	bsf	(144/8),(144)&7
	line	111
	
l5513:	
;C_PuertoSerial_usart.c: 111: TMR2ON = 1;
	bsf	(146/8),(146)&7
	line	114
	
l5515:	
;C_PuertoSerial_usart.c: 114: RA7=0;
	bcf	(47/8),(47)&7
	line	115
	
l5517:	
;C_PuertoSerial_usart.c: 115: RA6=0;
	bcf	(46/8),(46)&7
	line	116
	
l5519:	
;C_PuertoSerial_usart.c: 116: RE1=0;
	bcf	(73/8),(73)&7
	line	118
	
l5521:	
;C_PuertoSerial_usart.c: 118: pause(15);
	movlw	0Fh
	movwf	(?_pause)
	clrf	(?_pause+1)
	fcall	_pause
	line	119
	
l5523:	
;C_PuertoSerial_usart.c: 119: PORTD=init_value;
	movlw	(03h)
	bcf	status, 5	;RP0=0, select bank0
	bcf	status, 6	;RP1=0, select bank0
	movwf	(8)	;volatile
	line	120
	
l5525:	
;C_PuertoSerial_usart.c: 120: ((RA6=1),(RA6=0));
	bsf	(46/8),(46)&7
	
l5527:	
	bcf	(46/8),(46)&7
	line	121
;C_PuertoSerial_usart.c: 121: pause(10);
	movlw	0Ah
	movwf	(?_pause)
	clrf	(?_pause+1)
	fcall	_pause
	line	122
	
l5529:	
;C_PuertoSerial_usart.c: 122: ((RA6=1),(RA6=0));
	bcf	status, 5	;RP0=0, select bank0
	bcf	status, 6	;RP1=0, select bank0
	bsf	(46/8),(46)&7
	
l5531:	
	bcf	(46/8),(46)&7
	line	123
;C_PuertoSerial_usart.c: 123: pause(10);
	movlw	0Ah
	movwf	(?_pause)
	clrf	(?_pause+1)
	fcall	_pause
	line	124
	
l5533:	
;C_PuertoSerial_usart.c: 124: ((RA6=1),(RA6=0));
	bcf	status, 5	;RP0=0, select bank0
	bcf	status, 6	;RP1=0, select bank0
	bsf	(46/8),(46)&7
	
l5535:	
	bcf	(46/8),(46)&7
	line	125
;C_PuertoSerial_usart.c: 125: pause(10);
	movlw	0Ah
	movwf	(?_pause)
	clrf	(?_pause+1)
	fcall	_pause
	line	126
	
l5537:	
;C_PuertoSerial_usart.c: 126: PORTD=2;
	movlw	(02h)
	bcf	status, 5	;RP0=0, select bank0
	bcf	status, 6	;RP1=0, select bank0
	movwf	(8)	;volatile
	line	127
	
l5539:	
;C_PuertoSerial_usart.c: 127: ((RA6=1),(RA6=0));
	bsf	(46/8),(46)&7
	
l5541:	
	bcf	(46/8),(46)&7
	line	129
	
l5543:	
;C_PuertoSerial_usart.c: 129: lcd_write(0x28);
	movlw	(028h)
	fcall	_lcd_write
	line	130
	
l5545:	
;C_PuertoSerial_usart.c: 130: lcd_write(0xC);
	movlw	(0Ch)
	fcall	_lcd_write
	line	131
	
l5547:	
;C_PuertoSerial_usart.c: 131: lcd_clear();
	fcall	_lcd_clear
	line	132
	
l5549:	
;C_PuertoSerial_usart.c: 132: lcd_write(0x06);
	movlw	(06h)
	fcall	_lcd_write
	line	135
	
l5551:	
;C_PuertoSerial_usart.c: 135: TRISC7=1;
	bsf	status, 5	;RP0=1, select bank1
	bsf	(1087/8)^080h,(1087)&7
	line	136
	
l5553:	
;C_PuertoSerial_usart.c: 136: TRISC6=0;
	bcf	(1086/8)^080h,(1086)&7
	line	137
	
l5555:	
;C_PuertoSerial_usart.c: 137: OSCCON=0x70;
	movlw	(070h)
	movwf	(143)^080h	;volatile
	line	138
	
l5557:	
;C_PuertoSerial_usart.c: 138: SPBRG=12;
	movlw	(0Ch)
	movwf	(153)^080h	;volatile
	line	139
	
l5559:	
;C_PuertoSerial_usart.c: 139: RCSTA=0x90;
	movlw	(090h)
	bcf	status, 5	;RP0=0, select bank0
	movwf	(24)	;volatile
	line	140
	
l5561:	
;C_PuertoSerial_usart.c: 140: TXSTA=0x20;
	movlw	(020h)
	bsf	status, 5	;RP0=1, select bank1
	movwf	(152)^080h	;volatile
	line	141
	
l5563:	
;C_PuertoSerial_usart.c: 141: BAUDCTL=0x00;
	bsf	status, 6	;RP1=1, select bank3
	clrf	(391)^0180h	;volatile
	line	142
	
l5565:	
;C_PuertoSerial_usart.c: 142: pause(500);
	movlw	low(01F4h)
	movwf	(?_pause)
	movlw	high(01F4h)
	movwf	((?_pause))+1
	fcall	_pause
	line	145
	
l5567:	
;C_PuertoSerial_usart.c: 145: PORTA=0x01;
	movlw	(01h)
	bcf	status, 5	;RP0=0, select bank0
	bcf	status, 6	;RP1=0, select bank0
	movwf	(5)	;volatile
	line	146
	
l5569:	
;C_PuertoSerial_usart.c: 150: char char_recibido;
;C_PuertoSerial_usart.c: 151: char char_pwm;
;C_PuertoSerial_usart.c: 152: char buffer[15];
;C_PuertoSerial_usart.c: 155: unsigned char pos=0;
	movlw	(0FFh)
	movwf	(5)
	line	156
	
l5571:	
;C_PuertoSerial_usart.c: 156: for(int i=48; i<58; i++){
	movlw	030h
	bsf	status, 5	;RP0=1, select bank1
	movwf	(main@i)^080h
	clrf	(main@i+1)^080h
	line	157
	
l5577:	
;C_PuertoSerial_usart.c: 157: putch(i);
	bsf	status, 5	;RP0=1, select bank1
	bcf	status, 6	;RP1=0, select bank1
	movf	(main@i)^080h,w
	fcall	_putch
	line	158
;C_PuertoSerial_usart.c: 158: pause(20);
	movlw	014h
	movwf	(?_pause)
	clrf	(?_pause+1)
	fcall	_pause
	line	156
	
l5579:	
	bsf	status, 5	;RP0=1, select bank1
	bcf	status, 6	;RP1=0, select bank1
	incf	(main@i)^080h,f
	skipnz
	incf	(main@i+1)^080h,f
	
l5581:	
	movf	(main@i+1)^080h,w
	xorlw	80h
	movwf	btemp+1
	movlw	(high(03Ah))^80h
	subwf	btemp+1,w
	skipz
	goto	u2875
	movlw	low(03Ah)
	subwf	(main@i)^080h,w
u2875:

	skipc
	goto	u2871
	goto	u2870
u2871:
	goto	l5577
u2870:
	line	160
	
l5583:	
;C_PuertoSerial_usart.c: 159: }
;C_PuertoSerial_usart.c: 160: putch(0x0D);
	movlw	(0Dh)
	fcall	_putch
	line	161
;C_PuertoSerial_usart.c: 161: putch(0x0A);
	movlw	(0Ah)
	fcall	_putch
	line	163
	
l5585:	
;C_PuertoSerial_usart.c: 163: for(int i=97; i<123; i++){
	movlw	061h
	bsf	status, 5	;RP0=1, select bank1
	movwf	(main@i_1825)^080h
	clrf	(main@i_1825+1)^080h
	line	164
	
l5591:	
;C_PuertoSerial_usart.c: 164: putch(i);
	bsf	status, 5	;RP0=1, select bank1
	bcf	status, 6	;RP1=0, select bank1
	movf	(main@i_1825)^080h,w
	fcall	_putch
	line	165
;C_PuertoSerial_usart.c: 165: pause(20);
	movlw	014h
	movwf	(?_pause)
	clrf	(?_pause+1)
	fcall	_pause
	line	163
	
l5593:	
	bsf	status, 5	;RP0=1, select bank1
	bcf	status, 6	;RP1=0, select bank1
	incf	(main@i_1825)^080h,f
	skipnz
	incf	(main@i_1825+1)^080h,f
	
l5595:	
	movf	(main@i_1825+1)^080h,w
	xorlw	80h
	movwf	btemp+1
	movlw	(high(07Bh))^80h
	subwf	btemp+1,w
	skipz
	goto	u2885
	movlw	low(07Bh)
	subwf	(main@i_1825)^080h,w
u2885:

	skipc
	goto	u2881
	goto	u2880
u2881:
	goto	l5591
u2880:
	line	167
	
l5597:	
;C_PuertoSerial_usart.c: 166: }
;C_PuertoSerial_usart.c: 167: putch(0x0D);
	movlw	(0Dh)
	fcall	_putch
	line	168
;C_PuertoSerial_usart.c: 168: putch(0x0A);
	movlw	(0Ah)
	fcall	_putch
	line	169
	
l5599:	
;C_PuertoSerial_usart.c: 169: PORTA=0x00;
	clrf	(5)	;volatile
	line	170
	
l5601:	
;C_PuertoSerial_usart.c: 170: pause(1000);
	movlw	low(03E8h)
	movwf	(?_pause)
	movlw	high(03E8h)
	movwf	((?_pause))+1
	fcall	_pause
	line	175
	
l5603:	
;C_PuertoSerial_usart.c: 175: gets_Serial(&buffer);
	movlw	(main@buffer)&0ffh
	fcall	_gets_Serial
	line	178
	
l5605:	
;C_PuertoSerial_usart.c: 178: lcd_clear();
	fcall	_lcd_clear
	line	180
	
l5607:	
;C_PuertoSerial_usart.c: 180: ADCON0=0b11010101;
	movlw	(0D5h)
	bcf	status, 5	;RP0=0, select bank0
	bcf	status, 6	;RP1=0, select bank0
	movwf	(31)	;volatile
	line	181
	
l5609:	
;C_PuertoSerial_usart.c: 181: GO_DONE = 1;
	bsf	(249/8),(249)&7
	line	182
;C_PuertoSerial_usart.c: 182: while (GO_DONE ==1);
	
l1090:	
	btfsc	(249/8),(249)&7
	goto	u2891
	goto	u2890
u2891:
	goto	l1090
u2890:
	line	183
	
l5611:	
;C_PuertoSerial_usart.c: 183: nin=(ADRESH<<2)|(ADRESL>>6);
	movf	(30),w	;volatile
	bsf	status, 5	;RP0=1, select bank1
	movwf	(_nin)^080h
	clrf	(_nin+1)^080h
	
l5613:	
	clrc
	rlf	(_nin)^080h,f
	rlf	(_nin+1)^080h,f
	clrc
	rlf	(_nin)^080h,f
	rlf	(_nin+1)^080h,f
	movf	(158)^080h,w	;volatile
	bcf	status, 5	;RP0=0, select bank0
	movwf	(??_main+0)+0
	movlw	06h
u2905:
	clrc
	rrf	(??_main+0)+0,f
	addlw	-1
	skipz
	goto	u2905
	movf	0+(??_main+0)+0,w
	bsf	status, 5	;RP0=1, select bank1
	iorwf	(_nin)^080h,f
	line	184
	
l5615:	
;C_PuertoSerial_usart.c: 184: CCPR1L=ADRESH;
	bcf	status, 5	;RP0=0, select bank0
	movf	(30),w	;volatile
	movwf	(21)	;volatile
	line	186
	
l5617:	
;C_PuertoSerial_usart.c: 187: int num_f = 255;
	movlw	0x28
	movwf	(?___ftmul)
	movlw	0xa0
	movwf	(?___ftmul+1)
	movlw	0x3b
	movwf	(?___ftmul+2)
	bsf	status, 5	;RP0=1, select bank1
	movf	(_nin+1)^080h,w
	movwf	(?___awtoft+1)
	movf	(_nin)^080h,w
	movwf	(?___awtoft)
	fcall	___awtoft
	movf	(0+(?___awtoft)),w
	bcf	status, 5	;RP0=0, select bank0
	movwf	0+(?___ftmul)+03h
	movf	(1+(?___awtoft)),w
	movwf	1+(?___ftmul)+03h
	movf	(2+(?___awtoft)),w
	movwf	2+(?___ftmul)+03h
	fcall	___ftmul
	movf	(0+(?___ftmul)),w
	bsf	status, 5	;RP0=1, select bank1
	movwf	(_num)^080h
	bcf	status, 5	;RP0=0, select bank0
	movf	(1+(?___ftmul)),w
	bsf	status, 5	;RP0=1, select bank1
	movwf	(_num+1)^080h
	bcf	status, 5	;RP0=0, select bank0
	movf	(2+(?___ftmul)),w
	bsf	status, 5	;RP0=1, select bank1
	movwf	(_num+2)^080h
	line	189
	
l5619:	
;C_PuertoSerial_usart.c: 189: sprintf(buffer,"El valor es: %f  ", num);
	movlw	((STR_1-__stringbase))&0ffh
	bcf	status, 5	;RP0=0, select bank0
	movwf	(?_sprintf)
	bsf	status, 5	;RP0=1, select bank1
	movf	(_num)^080h,w
	bcf	status, 5	;RP0=0, select bank0
	movwf	0+(?_sprintf)+01h
	bsf	status, 5	;RP0=1, select bank1
	movf	(_num+1)^080h,w
	bcf	status, 5	;RP0=0, select bank0
	movwf	1+(?_sprintf)+01h
	bsf	status, 5	;RP0=1, select bank1
	movf	(_num+2)^080h,w
	bcf	status, 5	;RP0=0, select bank0
	movwf	2+(?_sprintf)+01h
	movlw	(main@buffer)&0ffh
	fcall	_sprintf
	line	192
	
l5621:	
;C_PuertoSerial_usart.c: 192: for (char x = 0; x<17; x++)
	clrf	(main@x)^080h
	line	194
	
l5627:	
;C_PuertoSerial_usart.c: 193: {
;C_PuertoSerial_usart.c: 194: putch (buffer[x]);
	movf	(main@x)^080h,w
	addlw	main@buffer&0ffh
	movwf	fsr0
	movf	indf,w
	fcall	_putch
	line	192
	
l5629:	
	bsf	status, 5	;RP0=1, select bank1
	incf	(main@x)^080h,f
	
l5631:	
	movlw	(011h)
	subwf	(main@x)^080h,w
	skipc
	goto	u2911
	goto	u2910
u2911:
	goto	l5627
u2910:
	line	196
	
l5633:	
;C_PuertoSerial_usart.c: 195: }
;C_PuertoSerial_usart.c: 196: pause(200);
	movlw	0C8h
	movwf	(?_pause)
	clrf	(?_pause+1)
	fcall	_pause
	line	198
;C_PuertoSerial_usart.c: 198: putch(0x0D);
	movlw	(0Dh)
	fcall	_putch
	line	199
;C_PuertoSerial_usart.c: 199: putch(0x0A);
	movlw	(0Ah)
	fcall	_putch
	line	202
	
l5635:	
;C_PuertoSerial_usart.c: 202: gets_Serial(&input);
	movlw	(_input)&0ffh
	fcall	_gets_Serial
	line	205
	
l5637:	
;C_PuertoSerial_usart.c: 205: for (char x = 0; x<15; x++)
	bsf	status, 5	;RP0=1, select bank1
	bcf	status, 6	;RP1=0, select bank1
	clrf	(main@x_1829)^080h
	line	207
	
l5643:	
;C_PuertoSerial_usart.c: 206: {
;C_PuertoSerial_usart.c: 207: putch (input[x]);
	movf	(main@x_1829)^080h,w
	addlw	_input&0ffh
	movwf	fsr0
	bcf	status, 7	;select IRP bank1
	movf	indf,w
	fcall	_putch
	line	205
	
l5645:	
	bsf	status, 5	;RP0=1, select bank1
	incf	(main@x_1829)^080h,f
	
l5647:	
	movlw	(0Fh)
	subwf	(main@x_1829)^080h,w
	skipc
	goto	u2921
	goto	u2920
u2921:
	goto	l5643
u2920:
	line	209
	
l5649:	
;C_PuertoSerial_usart.c: 208: }
;C_PuertoSerial_usart.c: 209: pause(200);
	movlw	0C8h
	movwf	(?_pause)
	clrf	(?_pause+1)
	fcall	_pause
	line	212
;C_PuertoSerial_usart.c: 212: lcd_goto(0);
	movlw	(0)
	fcall	_lcd_goto
	line	213
	
l5651:	
;C_PuertoSerial_usart.c: 213: lcd_puts(input);
	movlw	(_input)&0ffh
	fcall	_lcd_puts
	line	214
	
l5653:	
;C_PuertoSerial_usart.c: 214: lcd_goto(0x40);
	movlw	(040h)
	fcall	_lcd_goto
	line	215
;C_PuertoSerial_usart.c: 215: lcd_puts(buffer);
	movlw	(main@buffer)&0ffh
	fcall	_lcd_puts
	line	217
	
l5655:	
;C_PuertoSerial_usart.c: 217: pause(2000);
	movlw	low(07D0h)
	movwf	(?_pause)
	movlw	high(07D0h)
	movwf	((?_pause))+1
	fcall	_pause
	line	219
	
l5657:	
;C_PuertoSerial_usart.c: 219: putch(0x0D);
	movlw	(0Dh)
	fcall	_putch
	line	220
	
l5659:	
;C_PuertoSerial_usart.c: 220: putch(0x0A);
	movlw	(0Ah)
	fcall	_putch
	goto	l5605
	global	start
	ljmp	start
	opt stack 0
psect	maintext
	line	225
GLOBAL	__end_of_main
	__end_of_main:
;; =============== function _main ends ============

	signat	_main,88
	global	_sprintf
psect	text549,local,class=CODE,delta=2
global __ptext549
__ptext549:

;; *************** function _sprintf *****************
;; Defined at:
;;		line 488 in file "C:\Program Files (x86)\HI-TECH Software\PICC\9.82\lib\doprnt.c"
;; Parameters:    Size  Location     Type
;;  sp              1    wreg     PTR unsigned char 
;;		 -> main@buffer(15), 
;;  f               1   50[BANK0 ] PTR const unsigned char 
;;		 -> STR_1(18), 
;; Auto vars:     Size  Location     Type
;;  sp              1   16[BANK1 ] PTR unsigned char 
;;		 -> main@buffer(15), 
;;  _val            4    9[BANK1 ] struct .
;;  fval            3   19[BANK1 ] struct .
;;  integ           3   13[BANK1 ] struct .
;;  ival            3    0        struct .
;;  exp             2   17[BANK1 ] int 
;;  prec            2    7[BANK1 ] int 
;;  flag            2    5[BANK1 ] unsigned short 
;;  width           2    0        int 
;;  c               1   22[BANK1 ] char 
;;  ap              1    4[BANK1 ] PTR void [1]
;;		 -> ?_sprintf(2), 
;;  d               1    0        unsigned char 
;; Return value:  Size  Location     Type
;;                  2   50[BANK0 ] int 
;; Registers used:
;;		wreg, fsr0l, fsr0h, status,2, status,0, btemp+1, pclath, cstack
;; Tracked objects:
;;		On entry : 60/0
;;		On exit  : 160/20
;;		Unchanged: FFE00/0
;; Data sizes:     COMMON   BANK0   BANK1   BANK3   BANK2
;;      Params:         0       4       0       0       0
;;      Locals:         0       0      23       0       0
;;      Temps:          0       5       0       0       0
;;      Totals:         0       9      23       0       0
;;Total ram usage:       32 bytes
;; Hardware stack levels used:    1
;; Hardware stack levels required when called:    3
;; This function calls:
;;		___ftge
;;		___ftneg
;;		___wmul
;;		___awdiv
;;		_scale
;;		___ftmul
;;		_fround
;;		___ftadd
;;		___fttol
;;		__div_to_l_
;;		__tdiv_to_l_
;;		___lltoft
;;		___ftsub
;;		___lldiv
;;		___llmod
;; This function is called by:
;;		_main
;; This function uses a non-reentrant model
;;
psect	text549
	file	"C:\Program Files (x86)\HI-TECH Software\PICC\9.82\sources\doprnt.c"
	line	488
	global	__size_of_sprintf
	__size_of_sprintf	equ	__end_of_sprintf-_sprintf
	
_sprintf:	
	opt	stack 4
; Regs used in _sprintf: [wreg-fsr0h+status,2+status,0+btemp+1+pclath+cstack]
;sprintf@sp stored from wreg
	line	537
	bsf	status, 5	;RP0=1, select bank1
	movwf	(sprintf@sp)^080h
	
l5337:	
	movlw	(?_sprintf+01h)&0ffh
	movwf	(sprintf@ap)^080h
	line	540
	goto	l5497
	line	542
	
l5339:	
	movf	(sprintf@c)^080h,w
	xorlw	025h
	skipnz
	goto	u2631
	goto	u2630
u2631:
	goto	l5345
u2630:
	line	545
	
l5341:	
	movf	(sprintf@sp)^080h,w
	movwf	fsr0
	movf	(sprintf@c)^080h,w
	bcf	status, 7	;select IRP bank0
	movwf	indf
	
l5343:	
	incf	(sprintf@sp)^080h,f
	line	546
	goto	l5497
	line	552
	
l5345:	
	clrf	(sprintf@flag)^080h
	clrf	(sprintf@flag+1)^080h
	line	638
	goto	l5349
	line	665
	
l1160:	
	line	666
	bsf	(sprintf@flag)^080h+(10/8),(10)&7
	line	667
	goto	l5351
	line	638
	
l5349:	
	bcf	status, 5	;RP0=0, select bank0
	movf	(sprintf@f),w
	incf	(sprintf@f),f
	movwf	fsr0
	fcall	stringdir
	bsf	status, 5	;RP0=1, select bank1
	movwf	(sprintf@c)^080h
	; Switch size 1, requested type "space"
; Number of cases is 2, Range of values is 0 to 102
; switch strategies available:
; Name         Instructions Cycles
; simple_byte            7     4 (average)
; jumptable            260     6 (fixed)
; rangetable           107     6 (fixed)
; spacedrange          212     9 (fixed)
; locatedrange         103     3 (fixed)
;	Chosen strategy is simple_byte

	opt asmopt_off
	xorlw	0^0	; case 0
	skipnz
	goto	l5499
	xorlw	102^0	; case 102
	skipnz
	goto	l1160
	goto	l5497
	opt asmopt_on

	line	828
	
l5351:	
	movlw	low(0700h)
	andwf	(sprintf@flag)^080h,w
	bcf	status, 5	;RP0=0, select bank0
	movwf	(??_sprintf+0)+0
	movlw	high(0700h)
	bsf	status, 5	;RP0=1, select bank1
	andwf	(sprintf@flag+1)^080h,w
	bcf	status, 5	;RP0=0, select bank0
	movwf	1+(??_sprintf+0)+0
	movf	1+(??_sprintf+0)+0,w
	iorwf	0+(??_sprintf+0)+0,w
	skipnz
	goto	u2641
	goto	u2640
u2641:
	goto	l5491
u2640:
	line	832
	
l5353:	
	movlw	06h
	bsf	status, 5	;RP0=1, select bank1
	movwf	(sprintf@prec)^080h
	clrf	(sprintf@prec+1)^080h
	line	833
	
l5355:	
	movf	(sprintf@ap)^080h,w
	movwf	fsr0
	bcf	status, 7	;select IRP bank0
	movf	indf,w
	movwf	(sprintf@fval)^080h
	incf	fsr0,f
	movf	indf,w
	movwf	(sprintf@fval+1)^080h
	incf	fsr0,f
	movf	indf,w
	movwf	(sprintf@fval+2)^080h
	
l5357:	
	movlw	(03h)
	addwf	(sprintf@ap)^080h,f
	line	834
	
l5359:	
	movf	(sprintf@fval)^080h,w
	movwf	(?___ftge)
	movf	(sprintf@fval+1)^080h,w
	movwf	(?___ftge+1)
	movf	(sprintf@fval+2)^080h,w
	movwf	(?___ftge+2)
	clrf	0+(?___ftge)+03h
	clrf	1+(?___ftge)+03h
	clrf	2+(?___ftge)+03h
	fcall	___ftge
	btfsc	status,0
	goto	u2651
	goto	u2650
u2651:
	goto	l5365
u2650:
	line	835
	
l5361:	
	movf	(sprintf@fval)^080h,w
	movwf	(?___ftneg)
	movf	(sprintf@fval+1)^080h,w
	movwf	(?___ftneg+1)
	movf	(sprintf@fval+2)^080h,w
	movwf	(?___ftneg+2)
	fcall	___ftneg
	movf	(0+(?___ftneg)),w
	movwf	(sprintf@fval)^080h
	movf	(1+(?___ftneg)),w
	movwf	(sprintf@fval+1)^080h
	movf	(2+(?___ftneg)),w
	movwf	(sprintf@fval+2)^080h
	line	836
	
l5363:	
	movlw	03h
	iorwf	(sprintf@flag)^080h,f
	line	838
	
l5365:	
	clrf	(sprintf@exp)^080h
	clrf	(sprintf@exp+1)^080h
	line	839
	
l5367:	
	movf	(sprintf@fval+2)^080h,w
	iorwf	(sprintf@fval+1)^080h,w
	iorwf	(sprintf@fval)^080h,w
	skipnz
	goto	u2661
	goto	u2660
u2661:
	goto	l5397
u2660:
	line	840
	
l5369:	
	movlw	low(sprintf@fval)
	movwf	fsr0
	movf	indf,w
	bcf	status, 5	;RP0=0, select bank0
	movwf	(??_sprintf+0)+0+0
	incf	fsr0,f
	movf	indf,w
	movwf	(??_sprintf+0)+0+1
	incf	fsr0,f
	movf	indf,w
	movwf	(??_sprintf+0)+0+2
	incf	fsr0,f
	movf	indf,w
	movwf	(??_sprintf+0)+0+3
	movlw	0Fh
u2675:
	clrc
	rrf	(??_sprintf+0)+3,f
	rrf	(??_sprintf+0)+2,f
	rrf	(??_sprintf+0)+1,f
	rrf	(??_sprintf+0)+0,f
u2670:
	addlw	-1
	skipz
	goto	u2675
	movf	1+(??_sprintf+0)+0,w
	bsf	status, 5	;RP0=1, select bank1
	movwf	(sprintf@exp+1)^080h
	bcf	status, 5	;RP0=0, select bank0
	movf	0+(??_sprintf+0)+0,w
	bsf	status, 5	;RP0=1, select bank1
	movwf	(sprintf@exp)^080h
	
l5371:	
	movlw	0FFh
	andwf	(sprintf@exp)^080h,f
	clrf	(sprintf@exp+1)^080h
	
l5373:	
	movlw	-126
	addwf	(sprintf@exp)^080h,f
	skipc
	decf	(sprintf@exp+1)^080h,f
	line	841
	
l5375:	
	movlw	-1
	addwf	(sprintf@exp)^080h,f
	skipc
	decf	(sprintf@exp+1)^080h,f
	line	842
	
l5377:	
	movlw	03h
	movwf	(?___wmul)
	clrf	(?___wmul+1)
	movf	(sprintf@exp+1)^080h,w
	movwf	1+(?___wmul)+02h
	movf	(sprintf@exp)^080h,w
	movwf	0+(?___wmul)+02h
	fcall	___wmul
	movf	(1+(?___wmul)),w
	movwf	(sprintf@exp+1)^080h
	movf	(0+(?___wmul)),w
	movwf	(sprintf@exp)^080h
	line	843
	
l5379:	
	movlw	0Ah
	movwf	(?___awdiv)
	clrf	(?___awdiv+1)
	movf	(sprintf@exp+1)^080h,w
	movwf	1+(?___awdiv)+02h
	movf	(sprintf@exp)^080h,w
	movwf	0+(?___awdiv)+02h
	fcall	___awdiv
	movf	(1+(?___awdiv)),w
	movwf	(sprintf@exp+1)^080h
	movf	(0+(?___awdiv)),w
	movwf	(sprintf@exp)^080h
	line	844
	
l5381:	
	btfss	(sprintf@exp+1)^080h,7
	goto	u2681
	goto	u2680
u2681:
	goto	l5385
u2680:
	line	845
	
l5383:	
	movlw	-1
	addwf	(sprintf@exp)^080h,f
	skipc
	decf	(sprintf@exp+1)^080h,f
	line	849
	
l5385:	
	decf	(sprintf@exp)^080h,w
	xorlw	0ffh
	fcall	_scale
	movf	(0+(?_scale)),w
	bsf	status, 5	;RP0=1, select bank1
	movwf	(sprintf@integ)^080h
	bcf	status, 5	;RP0=0, select bank0
	movf	(1+(?_scale)),w
	bsf	status, 5	;RP0=1, select bank1
	movwf	(sprintf@integ+1)^080h
	bcf	status, 5	;RP0=0, select bank0
	movf	(2+(?_scale)),w
	bsf	status, 5	;RP0=1, select bank1
	movwf	(sprintf@integ+2)^080h
	line	850
	
l5387:	
	movf	(sprintf@fval)^080h,w
	bcf	status, 5	;RP0=0, select bank0
	movwf	(?___ftmul)
	bsf	status, 5	;RP0=1, select bank1
	movf	(sprintf@fval+1)^080h,w
	bcf	status, 5	;RP0=0, select bank0
	movwf	(?___ftmul+1)
	bsf	status, 5	;RP0=1, select bank1
	movf	(sprintf@fval+2)^080h,w
	bcf	status, 5	;RP0=0, select bank0
	movwf	(?___ftmul+2)
	bsf	status, 5	;RP0=1, select bank1
	movf	(sprintf@integ)^080h,w
	bcf	status, 5	;RP0=0, select bank0
	movwf	0+(?___ftmul)+03h
	bsf	status, 5	;RP0=1, select bank1
	movf	(sprintf@integ+1)^080h,w
	bcf	status, 5	;RP0=0, select bank0
	movwf	1+(?___ftmul)+03h
	bsf	status, 5	;RP0=1, select bank1
	movf	(sprintf@integ+2)^080h,w
	bcf	status, 5	;RP0=0, select bank0
	movwf	2+(?___ftmul)+03h
	fcall	___ftmul
	movf	(0+(?___ftmul)),w
	bsf	status, 5	;RP0=1, select bank1
	movwf	(sprintf@integ)^080h
	bcf	status, 5	;RP0=0, select bank0
	movf	(1+(?___ftmul)),w
	bsf	status, 5	;RP0=1, select bank1
	movwf	(sprintf@integ+1)^080h
	bcf	status, 5	;RP0=0, select bank0
	movf	(2+(?___ftmul)),w
	bsf	status, 5	;RP0=1, select bank1
	movwf	(sprintf@integ+2)^080h
	line	851
	
l5389:	
	movf	(sprintf@integ)^080h,w
	movwf	(?___ftge)
	movf	(sprintf@integ+1)^080h,w
	movwf	(?___ftge+1)
	movf	(sprintf@integ+2)^080h,w
	movwf	(?___ftge+2)
	movlw	0x0
	movwf	0+(?___ftge)+03h
	movlw	0x80
	movwf	1+(?___ftge)+03h
	movlw	0x3f
	movwf	2+(?___ftge)+03h
	fcall	___ftge
	btfsc	status,0
	goto	u2691
	goto	u2690
u2691:
	goto	l5393
u2690:
	line	852
	
l5391:	
	movlw	-1
	addwf	(sprintf@exp)^080h,f
	skipc
	decf	(sprintf@exp+1)^080h,f
	goto	l5397
	line	853
	
l5393:	
	movf	(sprintf@integ)^080h,w
	movwf	(?___ftge)
	movf	(sprintf@integ+1)^080h,w
	movwf	(?___ftge+1)
	movf	(sprintf@integ+2)^080h,w
	movwf	(?___ftge+2)
	movlw	0x0
	movwf	0+(?___ftge)+03h
	movlw	0x20
	movwf	1+(?___ftge)+03h
	movlw	0x41
	movwf	2+(?___ftge)+03h
	fcall	___ftge
	btfss	status,0
	goto	u2701
	goto	u2700
u2701:
	goto	l5397
u2700:
	line	854
	
l5395:	
	incf	(sprintf@exp)^080h,f
	skipnz
	incf	(sprintf@exp+1)^080h,f
	line	1115
	
l5397:	
	line	1116
	
l5399:	
	movlw	(06h)
	fcall	_fround
	movf	(0+(?_fround)),w
	movwf	(?___ftadd)
	movf	(1+(?_fround)),w
	movwf	(?___ftadd+1)
	movf	(2+(?_fround)),w
	movwf	(?___ftadd+2)
	bsf	status, 5	;RP0=1, select bank1
	movf	(sprintf@fval)^080h,w
	bcf	status, 5	;RP0=0, select bank0
	movwf	0+(?___ftadd)+03h
	bsf	status, 5	;RP0=1, select bank1
	movf	(sprintf@fval+1)^080h,w
	bcf	status, 5	;RP0=0, select bank0
	movwf	1+(?___ftadd)+03h
	bsf	status, 5	;RP0=1, select bank1
	movf	(sprintf@fval+2)^080h,w
	bcf	status, 5	;RP0=0, select bank0
	movwf	2+(?___ftadd)+03h
	fcall	___ftadd
	movf	(0+(?___ftadd)),w
	bsf	status, 5	;RP0=1, select bank1
	movwf	(sprintf@fval)^080h
	bcf	status, 5	;RP0=0, select bank0
	movf	(1+(?___ftadd)),w
	bsf	status, 5	;RP0=1, select bank1
	movwf	(sprintf@fval+1)^080h
	bcf	status, 5	;RP0=0, select bank0
	movf	(2+(?___ftadd)),w
	bsf	status, 5	;RP0=1, select bank1
	movwf	(sprintf@fval+2)^080h
	line	1119
	
l5401:	
	movf	(sprintf@exp+1)^080h,w
	xorlw	80h
	movwf	btemp+1
	movlw	(high(0Ah))^80h
	subwf	btemp+1,w
	skipz
	goto	u2715
	movlw	low(0Ah)
	subwf	(sprintf@exp)^080h,w
u2715:

	skipnc
	goto	u2711
	goto	u2710
u2711:
	goto	l5409
u2710:
	
l5403:	
	bsf	status, 5	;RP0=1, select bank1
	bcf	status, 6	;RP1=0, select bank1
	movf	(sprintf@fval+2)^080h,w
	iorwf	(sprintf@fval+1)^080h,w
	iorwf	(sprintf@fval)^080h,w
	skipnz
	goto	u2721
	goto	u2720
u2721:
	goto	l5425
u2720:
	
l5405:	
	movf	(sprintf@fval)^080h,w
	bcf	status, 5	;RP0=0, select bank0
	movwf	(?___fttol)
	bsf	status, 5	;RP0=1, select bank1
	movf	(sprintf@fval+1)^080h,w
	bcf	status, 5	;RP0=0, select bank0
	movwf	(?___fttol+1)
	bsf	status, 5	;RP0=1, select bank1
	movf	(sprintf@fval+2)^080h,w
	bcf	status, 5	;RP0=0, select bank0
	movwf	(?___fttol+2)
	fcall	___fttol
	movf	(3+(?___fttol)),w
	iorwf	(2+(?___fttol)),w
	iorwf	(1+(?___fttol)),w
	iorwf	(0+(?___fttol)),w
	skipz
	goto	u2731
	goto	u2730
u2731:
	goto	l5425
u2730:
	
l5407:	
	bsf	status, 5	;RP0=1, select bank1
	movf	(sprintf@exp+1)^080h,w
	xorlw	80h
	movwf	btemp+1
	movlw	(high(02h))^80h
	subwf	btemp+1,w
	skipz
	goto	u2745
	movlw	low(02h)
	subwf	(sprintf@exp)^080h,w
u2745:

	skipc
	goto	u2741
	goto	u2740
u2741:
	goto	l5425
u2740:
	line	1123
	
l5409:	
	bsf	status, 5	;RP0=1, select bank1
	bcf	status, 6	;RP1=0, select bank1
	movf	(sprintf@integ)^080h,w
	movwf	(?___ftge)
	movf	(sprintf@integ+1)^080h,w
	movwf	(?___ftge+1)
	movf	(sprintf@integ+2)^080h,w
	movwf	(?___ftge+2)
	movlw	0x70
	movwf	0+(?___ftge)+03h
	movlw	0x89
	movwf	1+(?___ftge)+03h
	movlw	0x40
	movwf	2+(?___ftge)+03h
	fcall	___ftge
	btfsc	status,0
	goto	u2751
	goto	u2750
u2751:
	goto	l5413
u2750:
	line	1124
	
l5411:	
	movlw	-9
	addwf	(sprintf@exp)^080h,f
	skipc
	decf	(sprintf@exp+1)^080h,f
	line	1125
	goto	l5415
	line	1126
	
l5413:	
	movlw	-8
	addwf	(sprintf@exp)^080h,f
	skipc
	decf	(sprintf@exp+1)^080h,f
	line	1128
	
l5415:	
	movf	(sprintf@exp)^080h,w
	fcall	_scale
	movf	(0+(?_scale)),w
	bsf	status, 5	;RP0=1, select bank1
	movwf	(sprintf@integ)^080h
	bcf	status, 5	;RP0=0, select bank0
	movf	(1+(?_scale)),w
	bsf	status, 5	;RP0=1, select bank1
	movwf	(sprintf@integ+1)^080h
	bcf	status, 5	;RP0=0, select bank0
	movf	(2+(?_scale)),w
	bsf	status, 5	;RP0=1, select bank1
	movwf	(sprintf@integ+2)^080h
	line	1129
	
l5419:	
	movf	(sprintf@fval)^080h,w
	movwf	(?__tdiv_to_l_)
	movf	(sprintf@fval+1)^080h,w
	movwf	(?__tdiv_to_l_+1)
	movf	(sprintf@fval+2)^080h,w
	movwf	(?__tdiv_to_l_+2)
	movf	(sprintf@integ)^080h,w
	movwf	0+(?__tdiv_to_l_)+03h
	movf	(sprintf@integ+1)^080h,w
	movwf	1+(?__tdiv_to_l_)+03h
	movf	(sprintf@integ+2)^080h,w
	movwf	2+(?__tdiv_to_l_)+03h
	fcall	__tdiv_to_l_
	movf	(3+(?__tdiv_to_l_)),w
	bsf	status, 5	;RP0=1, select bank1
	movwf	(_sprintf$1890+3)^080h
	movf	(2+(?__tdiv_to_l_)),w
	movwf	(_sprintf$1890+2)^080h
	movf	(1+(?__tdiv_to_l_)),w
	movwf	(_sprintf$1890+1)^080h
	movf	(0+(?__tdiv_to_l_)),w
	movwf	(_sprintf$1890)^080h

	
l5421:	
	movf	(_sprintf$1890+3)^080h,w
	movwf	(sprintf@_val+3)^080h
	movf	(_sprintf$1890+2)^080h,w
	movwf	(sprintf@_val+2)^080h
	movf	(_sprintf$1890+1)^080h,w
	movwf	(sprintf@_val+1)^080h
	movf	(_sprintf$1890)^080h,w
	movwf	(sprintf@_val)^080h

	line	1132
	
l5423:	
	clrf	(sprintf@fval)^080h
	clrf	(sprintf@fval+1)^080h
	clrf	(sprintf@fval+2)^080h
	line	1133
	goto	l5429
	line	1134
	
l5425:	
	bsf	status, 5	;RP0=1, select bank1
	bcf	status, 6	;RP1=0, select bank1
	movf	(sprintf@fval)^080h,w
	bcf	status, 5	;RP0=0, select bank0
	movwf	(?___fttol)
	bsf	status, 5	;RP0=1, select bank1
	movf	(sprintf@fval+1)^080h,w
	bcf	status, 5	;RP0=0, select bank0
	movwf	(?___fttol+1)
	bsf	status, 5	;RP0=1, select bank1
	movf	(sprintf@fval+2)^080h,w
	bcf	status, 5	;RP0=0, select bank0
	movwf	(?___fttol+2)
	fcall	___fttol
	movf	(3+(?___fttol)),w
	bsf	status, 5	;RP0=1, select bank1
	movwf	(sprintf@_val+3)^080h
	bcf	status, 5	;RP0=0, select bank0
	movf	(2+(?___fttol)),w
	bsf	status, 5	;RP0=1, select bank1
	movwf	(sprintf@_val+2)^080h
	bcf	status, 5	;RP0=0, select bank0
	movf	(1+(?___fttol)),w
	bsf	status, 5	;RP0=1, select bank1
	movwf	(sprintf@_val+1)^080h
	bcf	status, 5	;RP0=0, select bank0
	movf	(0+(?___fttol)),w
	bsf	status, 5	;RP0=1, select bank1
	movwf	(sprintf@_val)^080h

	line	1135
	movf	(sprintf@_val+3)^080h,w
	movwf	(?___lltoft+3)
	movf	(sprintf@_val+2)^080h,w
	movwf	(?___lltoft+2)
	movf	(sprintf@_val+1)^080h,w
	movwf	(?___lltoft+1)
	movf	(sprintf@_val)^080h,w
	movwf	(?___lltoft)

	fcall	___lltoft
	movf	(0+(?___lltoft)),w
	bcf	status, 5	;RP0=0, select bank0
	movwf	(?___ftsub)
	movf	(1+(?___lltoft)),w
	movwf	(?___ftsub+1)
	movf	(2+(?___lltoft)),w
	movwf	(?___ftsub+2)
	bsf	status, 5	;RP0=1, select bank1
	movf	(sprintf@fval)^080h,w
	bcf	status, 5	;RP0=0, select bank0
	movwf	0+(?___ftsub)+03h
	bsf	status, 5	;RP0=1, select bank1
	movf	(sprintf@fval+1)^080h,w
	bcf	status, 5	;RP0=0, select bank0
	movwf	1+(?___ftsub)+03h
	bsf	status, 5	;RP0=1, select bank1
	movf	(sprintf@fval+2)^080h,w
	bcf	status, 5	;RP0=0, select bank0
	movwf	2+(?___ftsub)+03h
	fcall	___ftsub
	movf	(0+(?___ftsub)),w
	bsf	status, 5	;RP0=1, select bank1
	movwf	(sprintf@fval)^080h
	bcf	status, 5	;RP0=0, select bank0
	movf	(1+(?___ftsub)),w
	bsf	status, 5	;RP0=1, select bank1
	movwf	(sprintf@fval+1)^080h
	bcf	status, 5	;RP0=0, select bank0
	movf	(2+(?___ftsub)),w
	bsf	status, 5	;RP0=1, select bank1
	movwf	(sprintf@fval+2)^080h
	line	1136
	
l5427:	
	clrf	(sprintf@exp)^080h
	clrf	(sprintf@exp+1)^080h
	line	1139
	
l5429:	
	clrf	(sprintf@c)^080h
	incf	(sprintf@c)^080h,f
	line	1140
	
l5435:	
	movf	(sprintf@c)^080h,w
	bcf	status, 5	;RP0=0, select bank0
	movwf	(??_sprintf+0)+0
	clrc
	rlf	(??_sprintf+0)+0,f
	clrc
	rlf	(??_sprintf+0)+0,w
	addlw	low((_dpowers-__stringbase))
	movwf	fsr0
	fcall	stringdir
	movwf	((??_sprintf+1)+0)
	fcall	stringdir
	movwf	((??_sprintf+1)+0+1)
	fcall	stringdir
	movwf	((??_sprintf+1)+0+2)
	fcall	stringdir
	movwf	((??_sprintf+1)+0+3)
	movf	3+(??_sprintf+1)+0,w
	bsf	status, 5	;RP0=1, select bank1
	subwf	(sprintf@_val+3)^080h,w
	skipz
	goto	u2765
	bcf	status, 5	;RP0=0, select bank0
	movf	2+(??_sprintf+1)+0,w
	bsf	status, 5	;RP0=1, select bank1
	subwf	(sprintf@_val+2)^080h,w
	skipz
	goto	u2765
	bcf	status, 5	;RP0=0, select bank0
	movf	1+(??_sprintf+1)+0,w
	bsf	status, 5	;RP0=1, select bank1
	subwf	(sprintf@_val+1)^080h,w
	skipz
	goto	u2765
	bcf	status, 5	;RP0=0, select bank0
	movf	0+(??_sprintf+1)+0,w
	bsf	status, 5	;RP0=1, select bank1
	subwf	(sprintf@_val)^080h,w
u2765:
	skipnc
	goto	u2761
	goto	u2760
u2761:
	goto	l5439
u2760:
	goto	l5443
	line	1139
	
l5439:	
	incf	(sprintf@c)^080h,f
	
l5441:	
	movf	(sprintf@c)^080h,w
	xorlw	0Ah
	skipz
	goto	u2771
	goto	u2770
u2771:
	goto	l5435
u2770:
	line	1189
	
l5443:	
	movf	(sprintf@flag)^080h,w
	andlw	03h
	btfsc	status,2
	goto	u2781
	goto	u2780
u2781:
	goto	l5453
u2780:
	line	1191
	
l5445:	
	movf	(sprintf@sp)^080h,w
	movwf	fsr0
	movlw	(02Dh)
	bcf	status, 7	;select IRP bank0
	movwf	indf
	
l5447:	
	bsf	status, 5	;RP0=1, select bank1
	incf	(sprintf@sp)^080h,f
	goto	l5453
	line	1201
	
l5449:	
	movlw	0Ah
	bcf	status, 5	;RP0=0, select bank0
	movwf	(?___llmod)
	clrf	(?___llmod+1)
	clrf	(?___llmod+2)
	clrf	(?___llmod+3)

	bsf	status, 5	;RP0=1, select bank1
	movf	(sprintf@c)^080h,w
	bcf	status, 5	;RP0=0, select bank0
	movwf	(??_sprintf+0)+0
	clrc
	rlf	(??_sprintf+0)+0,f
	clrc
	rlf	(??_sprintf+0)+0,w
	addlw	low((_dpowers-__stringbase))
	movwf	fsr0
	fcall	stringdir
	movwf	(?___lldiv)
	fcall	stringdir
	movwf	(?___lldiv+1)
	fcall	stringdir
	movwf	(?___lldiv+2)
	fcall	stringdir
	movwf	(?___lldiv+3)
	bsf	status, 5	;RP0=1, select bank1
	movf	(sprintf@_val+3)^080h,w
	movwf	3+(?___lldiv)+04h
	movf	(sprintf@_val+2)^080h,w
	movwf	2+(?___lldiv)+04h
	movf	(sprintf@_val+1)^080h,w
	movwf	1+(?___lldiv)+04h
	movf	(sprintf@_val)^080h,w
	movwf	0+(?___lldiv)+04h

	fcall	___lldiv
	movf	(3+(?___lldiv)),w
	bcf	status, 5	;RP0=0, select bank0
	movwf	3+(?___llmod)+04h
	movf	(2+(?___lldiv)),w
	movwf	2+(?___llmod)+04h
	movf	(1+(?___lldiv)),w
	movwf	1+(?___llmod)+04h
	movf	(0+(?___lldiv)),w
	movwf	0+(?___llmod)+04h

	fcall	___llmod
	movf	0+(((0+(?___llmod)))),w
	addlw	030h
	movwf	(??_sprintf+1)+0
	bsf	status, 5	;RP0=1, select bank1
	movf	(sprintf@sp)^080h,w
	movwf	fsr0
	bcf	status, 5	;RP0=0, select bank0
	movf	(??_sprintf+1)+0,w
	bcf	status, 7	;select IRP bank0
	movwf	indf
	goto	l5447
	line	1197
	
l5453:	
	decf	(sprintf@c)^080h,f
	incf	((sprintf@c)^080h),w
	skipz
	goto	u2791
	goto	u2790
u2791:
	goto	l5449
u2790:
	goto	l5461
	line	1205
	
l5455:	
	bsf	status, 5	;RP0=1, select bank1
	bcf	status, 6	;RP1=0, select bank1
	movf	(sprintf@sp)^080h,w
	movwf	fsr0
	movlw	(030h)
	bcf	status, 7	;select IRP bank0
	movwf	indf
	
l5457:	
	incf	(sprintf@sp)^080h,f
	line	1206
	
l5459:	
	movlw	-1
	addwf	(sprintf@exp)^080h,f
	skipc
	decf	(sprintf@exp+1)^080h,f
	line	1204
	
l5461:	
	movf	(sprintf@exp+1)^080h,w
	xorlw	80h
	movwf	btemp+1
	movlw	(high(01h))^80h
	subwf	btemp+1,w
	skipz
	goto	u2805
	movlw	low(01h)
	subwf	(sprintf@exp)^080h,w
u2805:

	skipnc
	goto	u2801
	goto	u2800
u2801:
	goto	l5455
u2800:
	line	1208
	
l5463:	
	bsf	status, 5	;RP0=1, select bank1
	bcf	status, 6	;RP1=0, select bank1
	movf	(sprintf@prec+1)^080h,w
	xorlw	80h
	movwf	btemp+1
	movlw	(high(09h))^80h
	subwf	btemp+1,w
	skipz
	goto	u2815
	movlw	low(09h)
	subwf	(sprintf@prec)^080h,w
u2815:

	skipc
	goto	u2811
	goto	u2810
u2811:
	goto	l5467
u2810:
	line	1209
	
l5465:	
	movlw	(08h)
	bsf	status, 5	;RP0=1, select bank1
	bcf	status, 6	;RP1=0, select bank1
	movwf	(sprintf@c)^080h
	goto	l1192
	line	1211
	
l5467:	
	bsf	status, 5	;RP0=1, select bank1
	bcf	status, 6	;RP1=0, select bank1
	movf	(sprintf@prec)^080h,w
	movwf	(sprintf@c)^080h
	
l1192:	
	line	1212
	movf	(sprintf@c)^080h,w
	bcf	status, 5	;RP0=0, select bank0
	movwf	(??_sprintf+0)+0
	clrf	(??_sprintf+0)+0+1
	btfsc	(??_sprintf+0)+0,7
	decf	(??_sprintf+0)+0+1,f
	movf	0+(??_sprintf+0)+0,w
	bsf	status, 5	;RP0=1, select bank1
	subwf	(sprintf@prec)^080h,f
	bcf	status, 5	;RP0=0, select bank0
	movf	1+(??_sprintf+0)+0,w
	bsf	status, 5	;RP0=1, select bank1
	skipc
	decf	(sprintf@prec+1)^080h,f
	subwf	(sprintf@prec+1)^080h,f
	line	1216
	movf	(sprintf@c)^080h,w
	skipz
	goto	u2820
	goto	l5473
u2820:
	line	1218
	
l5469:	
	movf	(sprintf@sp)^080h,w
	movwf	fsr0
	movlw	(02Eh)
	bcf	status, 7	;select IRP bank0
	movwf	indf
	
l5471:	
	incf	(sprintf@sp)^080h,f
	line	1224
	
l5473:	
	movf	(sprintf@c)^080h,w
	fcall	_scale
	movf	(0+(?_scale)),w
	movwf	0+(?___ftmul)+03h
	movf	(1+(?_scale)),w
	movwf	1+(?___ftmul)+03h
	movf	(2+(?_scale)),w
	movwf	2+(?___ftmul)+03h
	bsf	status, 5	;RP0=1, select bank1
	movf	(sprintf@fval)^080h,w
	bcf	status, 5	;RP0=0, select bank0
	movwf	(?___ftmul)
	bsf	status, 5	;RP0=1, select bank1
	movf	(sprintf@fval+1)^080h,w
	bcf	status, 5	;RP0=0, select bank0
	movwf	(?___ftmul+1)
	bsf	status, 5	;RP0=1, select bank1
	movf	(sprintf@fval+2)^080h,w
	bcf	status, 5	;RP0=0, select bank0
	movwf	(?___ftmul+2)
	fcall	___ftmul
	movf	(0+(?___ftmul)),w
	movwf	(?___fttol)
	movf	(1+(?___ftmul)),w
	movwf	(?___fttol+1)
	movf	(2+(?___ftmul)),w
	movwf	(?___fttol+2)
	fcall	___fttol
	movf	(3+(?___fttol)),w
	bsf	status, 5	;RP0=1, select bank1
	movwf	(sprintf@_val+3)^080h
	bcf	status, 5	;RP0=0, select bank0
	movf	(2+(?___fttol)),w
	bsf	status, 5	;RP0=1, select bank1
	movwf	(sprintf@_val+2)^080h
	bcf	status, 5	;RP0=0, select bank0
	movf	(1+(?___fttol)),w
	bsf	status, 5	;RP0=1, select bank1
	movwf	(sprintf@_val+1)^080h
	bcf	status, 5	;RP0=0, select bank0
	movf	(0+(?___fttol)),w
	bsf	status, 5	;RP0=1, select bank1
	movwf	(sprintf@_val)^080h

	line	1225
	goto	l5481
	line	1226
	
l5475:	
	movlw	0Ah
	bcf	status, 5	;RP0=0, select bank0
	movwf	(?___llmod)
	clrf	(?___llmod+1)
	clrf	(?___llmod+2)
	clrf	(?___llmod+3)

	bsf	status, 5	;RP0=1, select bank1
	movf	(sprintf@c)^080h,w
	bcf	status, 5	;RP0=0, select bank0
	movwf	(??_sprintf+0)+0
	clrc
	rlf	(??_sprintf+0)+0,f
	clrc
	rlf	(??_sprintf+0)+0,w
	addlw	low((_dpowers-__stringbase))
	movwf	fsr0
	fcall	stringdir
	movwf	(?___lldiv)
	fcall	stringdir
	movwf	(?___lldiv+1)
	fcall	stringdir
	movwf	(?___lldiv+2)
	fcall	stringdir
	movwf	(?___lldiv+3)
	bsf	status, 5	;RP0=1, select bank1
	movf	(sprintf@_val+3)^080h,w
	movwf	3+(?___lldiv)+04h
	movf	(sprintf@_val+2)^080h,w
	movwf	2+(?___lldiv)+04h
	movf	(sprintf@_val+1)^080h,w
	movwf	1+(?___lldiv)+04h
	movf	(sprintf@_val)^080h,w
	movwf	0+(?___lldiv)+04h

	fcall	___lldiv
	movf	(3+(?___lldiv)),w
	bcf	status, 5	;RP0=0, select bank0
	movwf	3+(?___llmod)+04h
	movf	(2+(?___lldiv)),w
	movwf	2+(?___llmod)+04h
	movf	(1+(?___lldiv)),w
	movwf	1+(?___llmod)+04h
	movf	(0+(?___lldiv)),w
	movwf	0+(?___llmod)+04h

	fcall	___llmod
	movf	0+(((0+(?___llmod)))),w
	addlw	030h
	movwf	(??_sprintf+1)+0
	bsf	status, 5	;RP0=1, select bank1
	movf	(sprintf@sp)^080h,w
	movwf	fsr0
	bcf	status, 5	;RP0=0, select bank0
	movf	(??_sprintf+1)+0,w
	bcf	status, 7	;select IRP bank0
	movwf	indf
	
l5477:	
	bsf	status, 5	;RP0=1, select bank1
	incf	(sprintf@sp)^080h,f
	line	1227
	
l5479:	
	movf	(sprintf@c)^080h,w
	bcf	status, 5	;RP0=0, select bank0
	movwf	(??_sprintf+0)+0
	clrc
	rlf	(??_sprintf+0)+0,f
	clrc
	rlf	(??_sprintf+0)+0,w
	addlw	low((_dpowers-__stringbase))
	movwf	fsr0
	fcall	stringdir
	movwf	(?___llmod)
	fcall	stringdir
	movwf	(?___llmod+1)
	fcall	stringdir
	movwf	(?___llmod+2)
	fcall	stringdir
	movwf	(?___llmod+3)
	bsf	status, 5	;RP0=1, select bank1
	movf	(sprintf@_val+3)^080h,w
	bcf	status, 5	;RP0=0, select bank0
	movwf	3+(?___llmod)+04h
	bsf	status, 5	;RP0=1, select bank1
	movf	(sprintf@_val+2)^080h,w
	bcf	status, 5	;RP0=0, select bank0
	movwf	2+(?___llmod)+04h
	bsf	status, 5	;RP0=1, select bank1
	movf	(sprintf@_val+1)^080h,w
	bcf	status, 5	;RP0=0, select bank0
	movwf	1+(?___llmod)+04h
	bsf	status, 5	;RP0=1, select bank1
	movf	(sprintf@_val)^080h,w
	bcf	status, 5	;RP0=0, select bank0
	movwf	0+(?___llmod)+04h

	fcall	___llmod
	movf	(3+(?___llmod)),w
	bsf	status, 5	;RP0=1, select bank1
	movwf	(sprintf@_val+3)^080h
	bcf	status, 5	;RP0=0, select bank0
	movf	(2+(?___llmod)),w
	bsf	status, 5	;RP0=1, select bank1
	movwf	(sprintf@_val+2)^080h
	bcf	status, 5	;RP0=0, select bank0
	movf	(1+(?___llmod)),w
	bsf	status, 5	;RP0=1, select bank1
	movwf	(sprintf@_val+1)^080h
	bcf	status, 5	;RP0=0, select bank0
	movf	(0+(?___llmod)),w
	bsf	status, 5	;RP0=1, select bank1
	movwf	(sprintf@_val)^080h

	line	1225
	
l5481:	
	decf	(sprintf@c)^080h,f
	incf	((sprintf@c)^080h),w
	skipz
	goto	u2831
	goto	u2830
u2831:
	goto	l5475
u2830:
	goto	l5489
	line	1231
	
l5483:	
	movf	(sprintf@sp)^080h,w
	movwf	fsr0
	movlw	(030h)
	bcf	status, 7	;select IRP bank0
	movwf	indf
	
l5485:	
	incf	(sprintf@sp)^080h,f
	line	1232
	
l5487:	
	movlw	-1
	addwf	(sprintf@prec)^080h,f
	skipc
	decf	(sprintf@prec+1)^080h,f
	line	1230
	
l5489:	
	movf	((sprintf@prec+1)^080h),w
	iorwf	((sprintf@prec)^080h),w
	skipz
	goto	u2841
	goto	u2840
u2841:
	goto	l5483
u2840:
	goto	l5497
	line	1433
	
l5491:	
	bsf	status, 5	;RP0=1, select bank1
	movf	(sprintf@flag)^080h,w
	andlw	03h
	btfsc	status,2
	goto	u2851
	goto	u2850
u2851:
	goto	l5497
u2850:
	line	1434
	
l5493:	
	movf	(sprintf@sp)^080h,w
	movwf	fsr0
	movlw	(02Dh)
	bcf	status, 7	;select IRP bank0
	movwf	indf
	goto	l5343
	line	540
	
l5497:	
	bcf	status, 5	;RP0=0, select bank0
	movf	(sprintf@f),w
	incf	(sprintf@f),f
	movwf	fsr0
	fcall	stringdir
	bsf	status, 5	;RP0=1, select bank1
	movwf	(sprintf@c)^080h
	movf	((sprintf@c)^080h),f
	skipz
	goto	u2861
	goto	u2860
u2861:
	goto	l5339
u2860:
	line	1530
	
l5499:	
	movf	(sprintf@sp)^080h,w
	movwf	fsr0
	bcf	status, 7	;select IRP bank0
	clrf	indf
	line	1533
	
l1202:	
	return
	opt stack 0
GLOBAL	__end_of_sprintf
	__end_of_sprintf:
;; =============== function _sprintf ends ============

	signat	_sprintf,4698
	global	_lcd_goto
psect	text550,local,class=CODE,delta=2
global __ptext550
__ptext550:

;; *************** function _lcd_goto *****************
;; Defined at:
;;		line 89 in file "C:\Users\petir\Documents\PIC_PROG\C_PuertoSerial\C_PuertoSerial_usart.c"
;; Parameters:    Size  Location     Type
;;  pos             1    wreg     unsigned char 
;; Auto vars:     Size  Location     Type
;;  pos             1    5[COMMON] unsigned char 
;; Return value:  Size  Location     Type
;;		None               void
;; Registers used:
;;		wreg, status,2, status,0, pclath, cstack
;; Tracked objects:
;;		On entry : 100/20
;;		On exit  : 160/0
;;		Unchanged: FFE9F/0
;; Data sizes:     COMMON   BANK0   BANK1   BANK3   BANK2
;;      Params:         0       0       0       0       0
;;      Locals:         1       0       0       0       0
;;      Temps:          0       0       0       0       0
;;      Totals:         1       0       0       0       0
;;Total ram usage:        1 bytes
;; Hardware stack levels used:    1
;; Hardware stack levels required when called:    3
;; This function calls:
;;		_lcd_write
;; This function is called by:
;;		_main
;; This function uses a non-reentrant model
;;
psect	text550
	file	"C:\Users\petir\Documents\PIC_PROG\C_PuertoSerial\C_PuertoSerial_usart.c"
	line	89
	global	__size_of_lcd_goto
	__size_of_lcd_goto	equ	__end_of_lcd_goto-_lcd_goto
	
_lcd_goto:	
	opt	stack 4
; Regs used in _lcd_goto: [wreg+status,2+status,0+pclath+cstack]
;lcd_goto@pos stored from wreg
	movwf	(lcd_goto@pos)
	line	90
	
l5333:	
;C_PuertoSerial_usart.c: 90: RA7=0;
	bcf	status, 5	;RP0=0, select bank0
	bcf	status, 6	;RP1=0, select bank0
	bcf	(47/8),(47)&7
	line	91
	
l5335:	
;C_PuertoSerial_usart.c: 91: lcd_write(0x80+pos);
	movf	(lcd_goto@pos),w
	addlw	080h
	fcall	_lcd_write
	line	92
	
l1082:	
	return
	opt stack 0
GLOBAL	__end_of_lcd_goto
	__end_of_lcd_goto:
;; =============== function _lcd_goto ends ============

	signat	_lcd_goto,4216
	global	_lcd_puts
psect	text551,local,class=CODE,delta=2
global __ptext551
__ptext551:

;; *************** function _lcd_puts *****************
;; Defined at:
;;		line 76 in file "C:\Users\petir\Documents\PIC_PROG\C_PuertoSerial\C_PuertoSerial_usart.c"
;; Parameters:    Size  Location     Type
;;  s               1    wreg     PTR const unsigned char 
;;		 -> input(17), main@buffer(15), 
;; Auto vars:     Size  Location     Type
;;  s               1    5[COMMON] PTR const unsigned char 
;;		 -> input(17), main@buffer(15), 
;; Return value:  Size  Location     Type
;;		None               void
;; Registers used:
;;		wreg, fsr0l, fsr0h, status,2, status,0, pclath, cstack
;; Tracked objects:
;;		On entry : 160/0
;;		On exit  : 160/0
;;		Unchanged: FFE9F/0
;; Data sizes:     COMMON   BANK0   BANK1   BANK3   BANK2
;;      Params:         0       0       0       0       0
;;      Locals:         1       0       0       0       0
;;      Temps:          0       0       0       0       0
;;      Totals:         1       0       0       0       0
;;Total ram usage:        1 bytes
;; Hardware stack levels used:    1
;; Hardware stack levels required when called:    3
;; This function calls:
;;		_lcd_write
;; This function is called by:
;;		_main
;; This function uses a non-reentrant model
;;
psect	text551
	file	"C:\Users\petir\Documents\PIC_PROG\C_PuertoSerial\C_PuertoSerial_usart.c"
	line	76
	global	__size_of_lcd_puts
	__size_of_lcd_puts	equ	__end_of_lcd_puts-_lcd_puts
	
_lcd_puts:	
	opt	stack 4
; Regs used in _lcd_puts: [wreg-fsr0h+status,2+status,0+pclath+cstack]
;lcd_puts@s stored from wreg
	movwf	(lcd_puts@s)
	line	77
	
l5325:	
;C_PuertoSerial_usart.c: 77: RA7=1;
	bsf	(47/8),(47)&7
	line	78
;C_PuertoSerial_usart.c: 78: while(*s)
	goto	l5331
	line	79
	
l5327:	
;C_PuertoSerial_usart.c: 79: lcd_write(*s++);
	movf	(lcd_puts@s),w
	movwf	fsr0
	movf	indf,w
	fcall	_lcd_write
	
l5329:	
	incf	(lcd_puts@s),f
	line	78
	
l5331:	
	movf	(lcd_puts@s),w
	movwf	fsr0
	movf	indf,f
	skipz
	goto	u2621
	goto	u2620
u2621:
	goto	l5327
u2620:
	line	80
	
l1076:	
	return
	opt stack 0
GLOBAL	__end_of_lcd_puts
	__end_of_lcd_puts:
;; =============== function _lcd_puts ends ============

	signat	_lcd_puts,4216
	global	_lcd_clear
psect	text552,local,class=CODE,delta=2
global __ptext552
__ptext552:

;; *************** function _lcd_clear *****************
;; Defined at:
;;		line 69 in file "C:\Users\petir\Documents\PIC_PROG\C_PuertoSerial\C_PuertoSerial_usart.c"
;; Parameters:    Size  Location     Type
;;		None
;; Auto vars:     Size  Location     Type
;;		None
;; Return value:  Size  Location     Type
;;		None               void
;; Registers used:
;;		wreg, status,2, status,0, pclath, cstack
;; Tracked objects:
;;		On entry : 0/0
;;		On exit  : 0/0
;;		Unchanged: FFF9F/0
;; Data sizes:     COMMON   BANK0   BANK1   BANK3   BANK2
;;      Params:         0       0       0       0       0
;;      Locals:         0       0       0       0       0
;;      Temps:          0       0       0       0       0
;;      Totals:         0       0       0       0       0
;;Total ram usage:        0 bytes
;; Hardware stack levels used:    1
;; Hardware stack levels required when called:    3
;; This function calls:
;;		_lcd_write
;;		_pause
;; This function is called by:
;;		_main
;; This function uses a non-reentrant model
;;
psect	text552
	file	"C:\Users\petir\Documents\PIC_PROG\C_PuertoSerial\C_PuertoSerial_usart.c"
	line	69
	global	__size_of_lcd_clear
	__size_of_lcd_clear	equ	__end_of_lcd_clear-_lcd_clear
	
_lcd_clear:	
	opt	stack 4
; Regs used in _lcd_clear: [wreg+status,2+status,0+pclath+cstack]
	line	70
	
l5321:	
;C_PuertoSerial_usart.c: 70: RA7=0;
	bcf	status, 5	;RP0=0, select bank0
	bcf	status, 6	;RP1=0, select bank0
	bcf	(47/8),(47)&7
	line	71
	
l5323:	
;C_PuertoSerial_usart.c: 71: lcd_write(0x1);
	movlw	(01h)
	fcall	_lcd_write
	line	72
;C_PuertoSerial_usart.c: 72: pause(2);
	movlw	02h
	movwf	(?_pause)
	clrf	(?_pause+1)
	fcall	_pause
	line	73
	
l1070:	
	return
	opt stack 0
GLOBAL	__end_of_lcd_clear
	__end_of_lcd_clear:
;; =============== function _lcd_clear ends ============

	signat	_lcd_clear,88
	global	___ftsub
psect	text553,local,class=CODE,delta=2
global __ptext553
__ptext553:

;; *************** function ___ftsub *****************
;; Defined at:
;;		line 17 in file "C:\Program Files (x86)\HI-TECH Software\PICC\9.82\sources\ftsub.c"
;; Parameters:    Size  Location     Type
;;  f2              3   40[BANK0 ] float 
;;  f1              3   43[BANK0 ] float 
;; Auto vars:     Size  Location     Type
;;		None
;; Return value:  Size  Location     Type
;;                  3   40[BANK0 ] float 
;; Registers used:
;;		wreg, status,2, status,0, pclath, cstack
;; Tracked objects:
;;		On entry : 60/0
;;		On exit  : 60/0
;;		Unchanged: FFF9F/0
;; Data sizes:     COMMON   BANK0   BANK1   BANK3   BANK2
;;      Params:         0       6       0       0       0
;;      Locals:         0       0       0       0       0
;;      Temps:          0       0       0       0       0
;;      Totals:         0       6       0       0       0
;;Total ram usage:        6 bytes
;; Hardware stack levels used:    1
;; Hardware stack levels required when called:    2
;; This function calls:
;;		___ftadd
;; This function is called by:
;;		_sprintf
;; This function uses a non-reentrant model
;;
psect	text553
	file	"C:\Program Files (x86)\HI-TECH Software\PICC\9.82\sources\ftsub.c"
	line	17
	global	__size_of___ftsub
	__size_of___ftsub	equ	__end_of___ftsub-___ftsub
	
___ftsub:	
	opt	stack 4
; Regs used in ___ftsub: [wreg+status,2+status,0+pclath+cstack]
	line	18
	
l5315:	
	movlw	080h
	xorwf	(___ftsub@f2+2),f
	line	19
	
l5317:	
	movf	(___ftsub@f1),w
	movwf	(?___ftadd)
	movf	(___ftsub@f1+1),w
	movwf	(?___ftadd+1)
	movf	(___ftsub@f1+2),w
	movwf	(?___ftadd+2)
	movf	(___ftsub@f2),w
	movwf	0+(?___ftadd)+03h
	movf	(___ftsub@f2+1),w
	movwf	1+(?___ftadd)+03h
	movf	(___ftsub@f2+2),w
	movwf	2+(?___ftadd)+03h
	fcall	___ftadd
	movf	(0+(?___ftadd)),w
	movwf	(?___ftsub)
	movf	(1+(?___ftadd)),w
	movwf	(?___ftsub+1)
	movf	(2+(?___ftadd)),w
	movwf	(?___ftsub+2)
	line	20
	
l2278:	
	return
	opt stack 0
GLOBAL	__end_of___ftsub
	__end_of___ftsub:
;; =============== function ___ftsub ends ============

	signat	___ftsub,8315
	global	_scale
psect	text554,local,class=CODE,delta=2
global __ptext554
__ptext554:

;; *************** function _scale *****************
;; Defined at:
;;		line 422 in file "C:\Program Files (x86)\HI-TECH Software\PICC\9.82\lib\doprnt.c"
;; Parameters:    Size  Location     Type
;;  scl             1    wreg     char 
;; Auto vars:     Size  Location     Type
;;  scl             1   38[BANK0 ] char 
;; Return value:  Size  Location     Type
;;                  3   28[BANK0 ] char 
;; Registers used:
;;		wreg, fsr0l, fsr0h, status,2, status,0, pclath, cstack
;; Tracked objects:
;;		On entry : 60/20
;;		On exit  : 60/0
;;		Unchanged: FFF9F/0
;; Data sizes:     COMMON   BANK0   BANK1   BANK3   BANK2
;;      Params:         0       3       0       0       0
;;      Locals:         0       4       0       0       0
;;      Temps:          0       4       0       0       0
;;      Totals:         0      11       0       0       0
;;Total ram usage:       11 bytes
;; Hardware stack levels used:    1
;; Hardware stack levels required when called:    2
;; This function calls:
;;		___awmod
;;		___awdiv
;;		___ftmul
;;		___bmul
;; This function is called by:
;;		_sprintf
;; This function uses a non-reentrant model
;;
psect	text554
	file	"C:\Program Files (x86)\HI-TECH Software\PICC\9.82\sources\doprnt.c"
	line	422
	global	__size_of_scale
	__size_of_scale	equ	__end_of_scale-_scale
	
_scale:	
	opt	stack 4
; Regs used in _scale: [wreg-fsr0h+status,2+status,0+pclath+cstack]
;scale@scl stored from wreg
	line	424
	bcf	status, 5	;RP0=0, select bank0
	movwf	(scale@scl)
	
l5275:	
	btfss	(scale@scl),7
	goto	u2571
	goto	u2570
u2571:
	goto	l5297
u2570:
	line	425
	
l5277:	
	comf	(scale@scl),f
	incf	(scale@scl),f
	line	426
	
l5279:	
	movf	(scale@scl),w
	xorlw	80h
	addlw	-((06Eh)^80h)
	skipc
	goto	u2581
	goto	u2580
u2581:
	goto	l5287
u2580:
	line	427
	
l5281:	
	movlw	0Ah
	movwf	(?___awdiv)
	clrf	(?___awdiv+1)
	movf	(scale@scl),w
	movwf	0+(?___awmod)+02h
	clrf	1+(?___awmod)+02h
	btfsc	0+(?___awmod)+02h,7
	decf	1+(?___awmod)+02h,f
	movlw	064h
	movwf	(?___awmod)
	clrf	(?___awmod+1)
	fcall	___awmod
	movf	(1+(?___awmod)),w
	movwf	1+(?___awdiv)+02h
	movf	(0+(?___awmod)),w
	movwf	0+(?___awdiv)+02h
	fcall	___awdiv
	movf	(0+?___awdiv),w
	movwf	(??_scale+0)+0
	movf	(1+?___awdiv),w
	movwf	((??_scale+0)+0+1)
	movf	0+(??_scale+0)+0,w
	addwf	0+(??_scale+0)+0,w
	addwf	0+(??_scale+0)+0,w
	addlw	low((__npowers_-__stringbase)+01Bh)
	movwf	fsr0
	fcall	stringdir
	movwf	(?___ftmul)
	fcall	stringdir
	movwf	(?___ftmul+1)
	fcall	stringdir
	movwf	(?___ftmul+2)
	movlw	064h
	movwf	(?___awdiv)
	clrf	(?___awdiv+1)
	movf	(scale@scl),w
	movwf	0+(?___awdiv)+02h
	clrf	1+(?___awdiv)+02h
	btfsc	0+(?___awdiv)+02h,7
	decf	1+(?___awdiv)+02h,f
	fcall	___awdiv
	movf	(0+?___awdiv),w
	movwf	(??_scale+2)+0
	movf	(1+?___awdiv),w
	movwf	((??_scale+2)+0+1)
	movf	0+(??_scale+2)+0,w
	addwf	0+(??_scale+2)+0,w
	addwf	0+(??_scale+2)+0,w
	addlw	low((__npowers_-__stringbase)+036h)
	movwf	fsr0
	fcall	stringdir
	movwf	0+(?___ftmul)+03h
	fcall	stringdir
	movwf	1+(?___ftmul)+03h
	fcall	stringdir
	movwf	2+(?___ftmul)+03h
	fcall	___ftmul
	movf	(0+(?___ftmul)),w
	movwf	(_scale$2837)
	movf	(1+(?___ftmul)),w
	movwf	(_scale$2837+1)
	movf	(2+(?___ftmul)),w
	movwf	(_scale$2837+2)
	movlw	0Ah
	movwf	(?___awmod)
	clrf	(?___awmod+1)
	movf	(scale@scl),w
	movwf	0+(?___awmod)+02h
	clrf	1+(?___awmod)+02h
	btfsc	0+(?___awmod)+02h,7
	decf	1+(?___awmod)+02h,f
	fcall	___awmod
	movf	(0+?___awmod),w
	movwf	(??_scale+0)+0
	movf	(1+?___awmod),w
	movwf	((??_scale+0)+0+1)
	movf	0+(??_scale+0)+0,w
	addwf	0+(??_scale+0)+0,w
	addwf	0+(??_scale+0)+0,w
	addlw	low((__npowers_-__stringbase))
	movwf	fsr0
	fcall	stringdir
	movwf	(?___ftmul)
	fcall	stringdir
	movwf	(?___ftmul+1)
	fcall	stringdir
	movwf	(?___ftmul+2)
	movf	(_scale$2837),w
	movwf	0+(?___ftmul)+03h
	movf	(_scale$2837+1),w
	movwf	1+(?___ftmul)+03h
	movf	(_scale$2837+2),w
	movwf	2+(?___ftmul)+03h
	fcall	___ftmul
	movf	(0+(?___ftmul)),w
	movwf	(?_scale)
	movf	(1+(?___ftmul)),w
	movwf	(?_scale+1)
	movf	(2+(?___ftmul)),w
	movwf	(?_scale+2)
	goto	l1146
	line	428
	
l5287:	
	movf	(scale@scl),w
	xorlw	80h
	addlw	-((0Bh)^80h)
	skipc
	goto	u2591
	goto	u2590
u2591:
	goto	l5293
u2590:
	line	429
	
l5289:	
	movlw	0Ah
	movwf	(?___awmod)
	clrf	(?___awmod+1)
	movf	(scale@scl),w
	movwf	0+(?___awmod)+02h
	clrf	1+(?___awmod)+02h
	btfsc	0+(?___awmod)+02h,7
	decf	1+(?___awmod)+02h,f
	fcall	___awmod
	movf	(0+?___awmod),w
	movwf	(??_scale+0)+0
	movf	(1+?___awmod),w
	movwf	((??_scale+0)+0+1)
	movf	0+(??_scale+0)+0,w
	addwf	0+(??_scale+0)+0,w
	addwf	0+(??_scale+0)+0,w
	addlw	low((__npowers_-__stringbase))
	movwf	fsr0
	fcall	stringdir
	movwf	(?___ftmul)
	fcall	stringdir
	movwf	(?___ftmul+1)
	fcall	stringdir
	movwf	(?___ftmul+2)
	movlw	0Ah
	movwf	(?___awdiv)
	clrf	(?___awdiv+1)
	movf	(scale@scl),w
	movwf	0+(?___awdiv)+02h
	clrf	1+(?___awdiv)+02h
	btfsc	0+(?___awdiv)+02h,7
	decf	1+(?___awdiv)+02h,f
	fcall	___awdiv
	movf	(0+?___awdiv),w
	movwf	(??_scale+2)+0
	movf	(1+?___awdiv),w
	movwf	((??_scale+2)+0+1)
	movf	0+(??_scale+2)+0,w
	addwf	0+(??_scale+2)+0,w
	addwf	0+(??_scale+2)+0,w
	addlw	low((__npowers_-__stringbase)+01Bh)
	movwf	fsr0
	fcall	stringdir
	movwf	0+(?___ftmul)+03h
	fcall	stringdir
	movwf	1+(?___ftmul)+03h
	fcall	stringdir
	movwf	2+(?___ftmul)+03h
	fcall	___ftmul
	movf	(0+(?___ftmul)),w
	movwf	(?_scale)
	movf	(1+(?___ftmul)),w
	movwf	(?_scale+1)
	movf	(2+(?___ftmul)),w
	movwf	(?_scale+2)
	goto	l1146
	line	430
	
l5293:	
	movlw	(03h)
	movwf	(?___bmul)
	movf	(scale@scl),w
	fcall	___bmul
	addlw	low((__npowers_-__stringbase))
	movwf	fsr0
	fcall	stringdir
	movwf	(?_scale)
	fcall	stringdir
	movwf	(?_scale+1)
	fcall	stringdir
	movwf	(?_scale+2)
	goto	l1146
	line	432
	
l5297:	
	movf	(scale@scl),w
	xorlw	80h
	addlw	-((06Eh)^80h)
	skipc
	goto	u2601
	goto	u2600
u2601:
	goto	l5305
u2600:
	line	433
	
l5299:	
	movlw	0Ah
	movwf	(?___awdiv)
	clrf	(?___awdiv+1)
	movf	(scale@scl),w
	movwf	0+(?___awmod)+02h
	clrf	1+(?___awmod)+02h
	btfsc	0+(?___awmod)+02h,7
	decf	1+(?___awmod)+02h,f
	movlw	064h
	movwf	(?___awmod)
	clrf	(?___awmod+1)
	fcall	___awmod
	movf	(1+(?___awmod)),w
	movwf	1+(?___awdiv)+02h
	movf	(0+(?___awmod)),w
	movwf	0+(?___awdiv)+02h
	fcall	___awdiv
	movf	(0+?___awdiv),w
	movwf	(??_scale+0)+0
	movf	(1+?___awdiv),w
	movwf	((??_scale+0)+0+1)
	movf	0+(??_scale+0)+0,w
	addwf	0+(??_scale+0)+0,w
	addwf	0+(??_scale+0)+0,w
	addlw	low((__powers_-__stringbase)+01Bh)
	movwf	fsr0
	fcall	stringdir
	movwf	(?___ftmul)
	fcall	stringdir
	movwf	(?___ftmul+1)
	fcall	stringdir
	movwf	(?___ftmul+2)
	movlw	064h
	movwf	(?___awdiv)
	clrf	(?___awdiv+1)
	movf	(scale@scl),w
	movwf	0+(?___awdiv)+02h
	clrf	1+(?___awdiv)+02h
	btfsc	0+(?___awdiv)+02h,7
	decf	1+(?___awdiv)+02h,f
	fcall	___awdiv
	movf	(0+?___awdiv),w
	movwf	(??_scale+2)+0
	movf	(1+?___awdiv),w
	movwf	((??_scale+2)+0+1)
	movf	0+(??_scale+2)+0,w
	addwf	0+(??_scale+2)+0,w
	addwf	0+(??_scale+2)+0,w
	addlw	low((__powers_-__stringbase)+036h)
	movwf	fsr0
	fcall	stringdir
	movwf	0+(?___ftmul)+03h
	fcall	stringdir
	movwf	1+(?___ftmul)+03h
	fcall	stringdir
	movwf	2+(?___ftmul)+03h
	fcall	___ftmul
	movf	(0+(?___ftmul)),w
	movwf	(_scale$2837)
	movf	(1+(?___ftmul)),w
	movwf	(_scale$2837+1)
	movf	(2+(?___ftmul)),w
	movwf	(_scale$2837+2)
	movlw	0Ah
	movwf	(?___awmod)
	clrf	(?___awmod+1)
	movf	(scale@scl),w
	movwf	0+(?___awmod)+02h
	clrf	1+(?___awmod)+02h
	btfsc	0+(?___awmod)+02h,7
	decf	1+(?___awmod)+02h,f
	fcall	___awmod
	movf	(0+?___awmod),w
	movwf	(??_scale+0)+0
	movf	(1+?___awmod),w
	movwf	((??_scale+0)+0+1)
	movf	0+(??_scale+0)+0,w
	addwf	0+(??_scale+0)+0,w
	addwf	0+(??_scale+0)+0,w
	addlw	low((__powers_-__stringbase))
	movwf	fsr0
	fcall	stringdir
	movwf	(?___ftmul)
	fcall	stringdir
	movwf	(?___ftmul+1)
	fcall	stringdir
	movwf	(?___ftmul+2)
	movf	(_scale$2837),w
	movwf	0+(?___ftmul)+03h
	movf	(_scale$2837+1),w
	movwf	1+(?___ftmul)+03h
	movf	(_scale$2837+2),w
	movwf	2+(?___ftmul)+03h
	fcall	___ftmul
	movf	(0+(?___ftmul)),w
	movwf	(?_scale)
	movf	(1+(?___ftmul)),w
	movwf	(?_scale+1)
	movf	(2+(?___ftmul)),w
	movwf	(?_scale+2)
	goto	l1146
	line	434
	
l5305:	
	movf	(scale@scl),w
	xorlw	80h
	addlw	-((0Bh)^80h)
	skipc
	goto	u2611
	goto	u2610
u2611:
	goto	l5311
u2610:
	line	435
	
l5307:	
	movlw	0Ah
	movwf	(?___awmod)
	clrf	(?___awmod+1)
	movf	(scale@scl),w
	movwf	0+(?___awmod)+02h
	clrf	1+(?___awmod)+02h
	btfsc	0+(?___awmod)+02h,7
	decf	1+(?___awmod)+02h,f
	fcall	___awmod
	movf	(0+?___awmod),w
	movwf	(??_scale+0)+0
	movf	(1+?___awmod),w
	movwf	((??_scale+0)+0+1)
	movf	0+(??_scale+0)+0,w
	addwf	0+(??_scale+0)+0,w
	addwf	0+(??_scale+0)+0,w
	addlw	low((__powers_-__stringbase))
	movwf	fsr0
	fcall	stringdir
	movwf	(?___ftmul)
	fcall	stringdir
	movwf	(?___ftmul+1)
	fcall	stringdir
	movwf	(?___ftmul+2)
	movlw	0Ah
	movwf	(?___awdiv)
	clrf	(?___awdiv+1)
	movf	(scale@scl),w
	movwf	0+(?___awdiv)+02h
	clrf	1+(?___awdiv)+02h
	btfsc	0+(?___awdiv)+02h,7
	decf	1+(?___awdiv)+02h,f
	fcall	___awdiv
	movf	(0+?___awdiv),w
	movwf	(??_scale+2)+0
	movf	(1+?___awdiv),w
	movwf	((??_scale+2)+0+1)
	movf	0+(??_scale+2)+0,w
	addwf	0+(??_scale+2)+0,w
	addwf	0+(??_scale+2)+0,w
	addlw	low((__powers_-__stringbase)+01Bh)
	movwf	fsr0
	fcall	stringdir
	movwf	0+(?___ftmul)+03h
	fcall	stringdir
	movwf	1+(?___ftmul)+03h
	fcall	stringdir
	movwf	2+(?___ftmul)+03h
	fcall	___ftmul
	movf	(0+(?___ftmul)),w
	movwf	(?_scale)
	movf	(1+(?___ftmul)),w
	movwf	(?_scale+1)
	movf	(2+(?___ftmul)),w
	movwf	(?_scale+2)
	goto	l1146
	line	436
	
l5311:	
	movlw	(03h)
	movwf	(?___bmul)
	movf	(scale@scl),w
	fcall	___bmul
	addlw	low((__powers_-__stringbase))
	movwf	fsr0
	fcall	stringdir
	movwf	(?_scale)
	fcall	stringdir
	movwf	(?_scale+1)
	fcall	stringdir
	movwf	(?_scale+2)
	line	437
	
l1146:	
	return
	opt stack 0
GLOBAL	__end_of_scale
	__end_of_scale:
;; =============== function _scale ends ============

	signat	_scale,4219
	global	_fround
psect	text555,local,class=CODE,delta=2
global __ptext555
__ptext555:

;; *************** function _fround *****************
;; Defined at:
;;		line 406 in file "C:\Program Files (x86)\HI-TECH Software\PICC\9.82\lib\doprnt.c"
;; Parameters:    Size  Location     Type
;;  prec            1    wreg     unsigned char 
;; Auto vars:     Size  Location     Type
;;  prec            1   49[BANK0 ] unsigned char 
;; Return value:  Size  Location     Type
;;                  3   40[BANK0 ] unsigned char 
;; Registers used:
;;		wreg, fsr0l, fsr0h, status,2, status,0, pclath, cstack
;; Tracked objects:
;;		On entry : 160/20
;;		On exit  : 160/0
;;		Unchanged: FFE9F/0
;; Data sizes:     COMMON   BANK0   BANK1   BANK3   BANK2
;;      Params:         0       3       0       0       0
;;      Locals:         0       7       0       0       0
;;      Temps:          0       0       0       0       0
;;      Totals:         0      10       0       0       0
;;Total ram usage:       10 bytes
;; Hardware stack levels used:    1
;; Hardware stack levels required when called:    2
;; This function calls:
;;		___lbmod
;;		___bmul
;;		___lbdiv
;;		___ftmul
;; This function is called by:
;;		_sprintf
;; This function uses a non-reentrant model
;;
psect	text555
	file	"C:\Program Files (x86)\HI-TECH Software\PICC\9.82\sources\doprnt.c"
	line	406
	global	__size_of_fround
	__size_of_fround	equ	__end_of_fround-_fround
	
_fround:	
	opt	stack 4
; Regs used in _fround: [wreg-fsr0h+status,2+status,0+pclath+cstack]
;fround@prec stored from wreg
	line	409
	bcf	status, 5	;RP0=0, select bank0
	movwf	(fround@prec)
	
l5253:	
	movlw	(06Eh)
	subwf	(fround@prec),w
	skipc
	goto	u2551
	goto	u2550
u2551:
	goto	l5263
u2550:
	line	410
	
l5255:	
	movlw	(03h)
	movwf	(?___bmul)
	movlw	(0Ah)
	movwf	(?___lbdiv)
	movlw	(064h)
	movwf	(?___lbmod)
	movf	(fround@prec),w
	fcall	___lbmod
	fcall	___lbdiv
	fcall	___bmul
	addlw	low((__npowers_-__stringbase)+01Bh)
	movwf	fsr0
	fcall	stringdir
	movwf	(?___ftmul)
	fcall	stringdir
	movwf	(?___ftmul+1)
	fcall	stringdir
	movwf	(?___ftmul+2)
	movlw	(03h)
	movwf	(?___bmul)
	movlw	(064h)
	movwf	(?___lbdiv)
	movf	(fround@prec),w
	fcall	___lbdiv
	fcall	___bmul
	addlw	low((__npowers_-__stringbase)+036h)
	movwf	fsr0
	fcall	stringdir
	movwf	0+(?___ftmul)+03h
	fcall	stringdir
	movwf	1+(?___ftmul)+03h
	fcall	stringdir
	movwf	2+(?___ftmul)+03h
	fcall	___ftmul
	movf	(0+(?___ftmul)),w
	movwf	(_fround$2835)
	movf	(1+(?___ftmul)),w
	movwf	(_fround$2835+1)
	movf	(2+(?___ftmul)),w
	movwf	(_fround$2835+2)
	movlw	(03h)
	movwf	(?___bmul)
	movlw	(0Ah)
	movwf	(?___lbmod)
	movf	(fround@prec),w
	fcall	___lbmod
	fcall	___bmul
	addlw	low((__npowers_-__stringbase))
	movwf	fsr0
	fcall	stringdir
	movwf	(?___ftmul)
	fcall	stringdir
	movwf	(?___ftmul+1)
	fcall	stringdir
	movwf	(?___ftmul+2)
	movf	(_fround$2835),w
	movwf	0+(?___ftmul)+03h
	movf	(_fround$2835+1),w
	movwf	1+(?___ftmul)+03h
	movf	(_fround$2835+2),w
	movwf	2+(?___ftmul)+03h
	fcall	___ftmul
	movf	(0+(?___ftmul)),w
	movwf	(_fround$2836)
	movf	(1+(?___ftmul)),w
	movwf	(_fround$2836+1)
	movf	(2+(?___ftmul)),w
	movwf	(_fround$2836+2)
	
l5257:	
	movlw	0x0
	movwf	(?___ftmul)
	movlw	0x0
	movwf	(?___ftmul+1)
	movlw	0x3f
	movwf	(?___ftmul+2)
	movf	(_fround$2836),w
	movwf	0+(?___ftmul)+03h
	movf	(_fround$2836+1),w
	movwf	1+(?___ftmul)+03h
	movf	(_fround$2836+2),w
	movwf	2+(?___ftmul)+03h
	fcall	___ftmul
	movf	(0+(?___ftmul)),w
	movwf	(?_fround)
	movf	(1+(?___ftmul)),w
	movwf	(?_fround+1)
	movf	(2+(?___ftmul)),w
	movwf	(?_fround+2)
	goto	l1139
	line	411
	
l5263:	
	movlw	(0Bh)
	subwf	(fround@prec),w
	skipc
	goto	u2561
	goto	u2560
u2561:
	goto	l5271
u2560:
	line	412
	
l5265:	
	movlw	(03h)
	movwf	(?___bmul)
	movlw	(0Ah)
	movwf	(?___lbmod)
	movf	(fround@prec),w
	fcall	___lbmod
	fcall	___bmul
	addlw	low((__npowers_-__stringbase))
	movwf	fsr0
	fcall	stringdir
	movwf	(?___ftmul)
	fcall	stringdir
	movwf	(?___ftmul+1)
	fcall	stringdir
	movwf	(?___ftmul+2)
	movlw	(03h)
	movwf	(?___bmul)
	movlw	(0Ah)
	movwf	(?___lbdiv)
	movf	(fround@prec),w
	fcall	___lbdiv
	fcall	___bmul
	addlw	low((__npowers_-__stringbase)+01Bh)
	movwf	fsr0
	fcall	stringdir
	movwf	0+(?___ftmul)+03h
	fcall	stringdir
	movwf	1+(?___ftmul)+03h
	fcall	stringdir
	movwf	2+(?___ftmul)+03h
	fcall	___ftmul
	movf	(0+(?___ftmul)),w
	movwf	(_fround$2835)
	movf	(1+(?___ftmul)),w
	movwf	(_fround$2835+1)
	movf	(2+(?___ftmul)),w
	movwf	(_fround$2835+2)
	
l5267:	
	movlw	0x0
	movwf	(?___ftmul)
	movlw	0x0
	movwf	(?___ftmul+1)
	movlw	0x3f
	movwf	(?___ftmul+2)
	movf	(_fround$2835),w
	movwf	0+(?___ftmul)+03h
	movf	(_fround$2835+1),w
	movwf	1+(?___ftmul)+03h
	movf	(_fround$2835+2),w
	movwf	2+(?___ftmul)+03h
	fcall	___ftmul
	movf	(0+(?___ftmul)),w
	movwf	(?_fround)
	movf	(1+(?___ftmul)),w
	movwf	(?_fround+1)
	movf	(2+(?___ftmul)),w
	movwf	(?_fround+2)
	goto	l1139
	line	413
	
l5271:	
	movlw	0x0
	movwf	(?___ftmul)
	movlw	0x0
	movwf	(?___ftmul+1)
	movlw	0x3f
	movwf	(?___ftmul+2)
	movlw	(03h)
	movwf	(?___bmul)
	movf	(fround@prec),w
	fcall	___bmul
	addlw	low((__npowers_-__stringbase))
	movwf	fsr0
	fcall	stringdir
	movwf	0+(?___ftmul)+03h
	fcall	stringdir
	movwf	1+(?___ftmul)+03h
	fcall	stringdir
	movwf	2+(?___ftmul)+03h
	fcall	___ftmul
	movf	(0+(?___ftmul)),w
	movwf	(?_fround)
	movf	(1+(?___ftmul)),w
	movwf	(?_fround+1)
	movf	(2+(?___ftmul)),w
	movwf	(?_fround+2)
	line	414
	
l1139:	
	return
	opt stack 0
GLOBAL	__end_of_fround
	__end_of_fround:
;; =============== function _fround ends ============

	signat	_fround,4219
	global	_lcd_write
psect	text556,local,class=CODE,delta=2
global __ptext556
__ptext556:

;; *************** function _lcd_write *****************
;; Defined at:
;;		line 60 in file "C:\Users\petir\Documents\PIC_PROG\C_PuertoSerial\C_PuertoSerial_usart.c"
;; Parameters:    Size  Location     Type
;;  c               1    wreg     unsigned char 
;; Auto vars:     Size  Location     Type
;;  c               1    4[COMMON] unsigned char 
;; Return value:  Size  Location     Type
;;		None               void
;; Registers used:
;;		wreg, status,2, status,0, pclath, cstack
;; Tracked objects:
;;		On entry : 0/0
;;		On exit  : 60/0
;;		Unchanged: FFF9F/0
;; Data sizes:     COMMON   BANK0   BANK1   BANK3   BANK2
;;      Params:         0       0       0       0       0
;;      Locals:         1       0       0       0       0
;;      Temps:          0       0       0       0       0
;;      Totals:         1       0       0       0       0
;;Total ram usage:        1 bytes
;; Hardware stack levels used:    1
;; Hardware stack levels required when called:    2
;; This function calls:
;;		_pause
;; This function is called by:
;;		_lcd_clear
;;		_lcd_puts
;;		_lcd_goto
;;		_main
;; This function uses a non-reentrant model
;;
psect	text556
	file	"C:\Users\petir\Documents\PIC_PROG\C_PuertoSerial\C_PuertoSerial_usart.c"
	line	60
	global	__size_of_lcd_write
	__size_of_lcd_write	equ	__end_of_lcd_write-_lcd_write
	
_lcd_write:	
	opt	stack 4
; Regs used in _lcd_write: [wreg+status,2+status,0+pclath+cstack]
;lcd_write@c stored from wreg
	movwf	(lcd_write@c)
	line	61
	
l5239:	
;C_PuertoSerial_usart.c: 61: pause(1);
	clrf	(?_pause)
	incf	(?_pause),f
	clrf	(?_pause+1)
	fcall	_pause
	line	62
	
l5241:	
;C_PuertoSerial_usart.c: 62: PORTD=((c >> 4) & 0x0F);
	swapf	(lcd_write@c),w
	andlw	(0ffh shr 4) & 0ffh
	andlw	0Fh
	bcf	status, 5	;RP0=0, select bank0
	bcf	status, 6	;RP1=0, select bank0
	movwf	(8)	;volatile
	line	63
	
l5243:	
;C_PuertoSerial_usart.c: 63: ((RA6=1),(RA6=0));
	bsf	(46/8),(46)&7
	
l5245:	
	bcf	(46/8),(46)&7
	line	64
	
l5247:	
;C_PuertoSerial_usart.c: 64: PORTD=(c & 0x0F);
	movf	(lcd_write@c),w
	andlw	0Fh
	movwf	(8)	;volatile
	line	65
	
l5249:	
;C_PuertoSerial_usart.c: 65: ((RA6=1),(RA6=0));
	bsf	(46/8),(46)&7
	
l5251:	
	bcf	(46/8),(46)&7
	line	66
	
l1067:	
	return
	opt stack 0
GLOBAL	__end_of_lcd_write
	__end_of_lcd_write:
;; =============== function _lcd_write ends ============

	signat	_lcd_write,4216
	global	___lltoft
psect	text557,local,class=CODE,delta=2
global __ptext557
__ptext557:

;; *************** function ___lltoft *****************
;; Defined at:
;;		line 36 in file "C:\Program Files (x86)\HI-TECH Software\PICC\9.82\sources\lltoft.c"
;; Parameters:    Size  Location     Type
;;  c               4    8[COMMON] unsigned long 
;; Auto vars:     Size  Location     Type
;;  exp             1   12[COMMON] unsigned char 
;; Return value:  Size  Location     Type
;;                  3    8[COMMON] float 
;; Registers used:
;;		wreg, status,2, status,0, pclath, cstack
;; Tracked objects:
;;		On entry : 60/20
;;		On exit  : 60/20
;;		Unchanged: FFF9F/0
;; Data sizes:     COMMON   BANK0   BANK1   BANK3   BANK2
;;      Params:         4       0       0       0       0
;;      Locals:         1       0       0       0       0
;;      Temps:          0       0       0       0       0
;;      Totals:         5       0       0       0       0
;;Total ram usage:        5 bytes
;; Hardware stack levels used:    1
;; Hardware stack levels required when called:    1
;; This function calls:
;;		___ftpack
;; This function is called by:
;;		_sprintf
;; This function uses a non-reentrant model
;;
psect	text557
	file	"C:\Program Files (x86)\HI-TECH Software\PICC\9.82\sources\lltoft.c"
	line	36
	global	__size_of___lltoft
	__size_of___lltoft	equ	__end_of___lltoft-___lltoft
	
___lltoft:	
	opt	stack 5
; Regs used in ___lltoft: [wreg+status,2+status,0+pclath+cstack]
	line	38
	
l5229:	
	movlw	(08Eh)
	movwf	(___lltoft@exp)
	line	41
	goto	l5233
	line	42
	
l5231:	
	clrc
	rrf	(___lltoft@c+3),f
	rrf	(___lltoft@c+2),f
	rrf	(___lltoft@c+1),f
	rrf	(___lltoft@c),f
	line	43
	incf	(___lltoft@exp),f
	line	41
	
l5233:	
	movlw	high highword(-16777216)
	andwf	(___lltoft@c+3),w
	btfss	status,2
	goto	u2541
	goto	u2540
u2541:
	goto	l5231
u2540:
	line	45
	
l5235:	
	movf	(___lltoft@c),w
	movwf	(?___ftpack)
	movf	(___lltoft@c+1),w
	movwf	(?___ftpack+1)
	movf	(___lltoft@c+2),w
	movwf	(?___ftpack+2)
	movf	(___lltoft@exp),w
	movwf	0+(?___ftpack)+03h
	clrf	0+(?___ftpack)+04h
	fcall	___ftpack
	movf	(0+(?___ftpack)),w
	movwf	(?___lltoft)
	movf	(1+(?___ftpack)),w
	movwf	(?___lltoft+1)
	movf	(2+(?___ftpack)),w
	movwf	(?___lltoft+2)
	line	46
	
l2435:	
	return
	opt stack 0
GLOBAL	__end_of___lltoft
	__end_of___lltoft:
;; =============== function ___lltoft ends ============

	signat	___lltoft,4219
	global	___awtoft
psect	text558,local,class=CODE,delta=2
global __ptext558
__ptext558:

;; *************** function ___awtoft *****************
;; Defined at:
;;		line 33 in file "C:\Program Files (x86)\HI-TECH Software\PICC\9.82\sources\awtoft.c"
;; Parameters:    Size  Location     Type
;;  c               2    8[COMMON] int 
;; Auto vars:     Size  Location     Type
;;  sign            1   11[COMMON] unsigned char 
;; Return value:  Size  Location     Type
;;                  3    8[COMMON] float 
;; Registers used:
;;		wreg, status,2, status,0, pclath, cstack
;; Tracked objects:
;;		On entry : 60/20
;;		On exit  : 60/20
;;		Unchanged: FFF9F/0
;; Data sizes:     COMMON   BANK0   BANK1   BANK3   BANK2
;;      Params:         3       0       0       0       0
;;      Locals:         1       0       0       0       0
;;      Temps:          0       0       0       0       0
;;      Totals:         4       0       0       0       0
;;Total ram usage:        4 bytes
;; Hardware stack levels used:    1
;; Hardware stack levels required when called:    1
;; This function calls:
;;		___ftpack
;; This function is called by:
;;		_main
;; This function uses a non-reentrant model
;;
psect	text558
	file	"C:\Program Files (x86)\HI-TECH Software\PICC\9.82\sources\awtoft.c"
	line	33
	global	__size_of___awtoft
	__size_of___awtoft	equ	__end_of___awtoft-___awtoft
	
___awtoft:	
	opt	stack 6
; Regs used in ___awtoft: [wreg+status,2+status,0+pclath+cstack]
	line	36
	
l5217:	
	clrf	(___awtoft@sign)
	line	37
	
l5219:	
	btfss	(___awtoft@c+1),7
	goto	u2531
	goto	u2530
u2531:
	goto	l5225
u2530:
	line	38
	
l5221:	
	comf	(___awtoft@c),f
	comf	(___awtoft@c+1),f
	incf	(___awtoft@c),f
	skipnz
	incf	(___awtoft@c+1),f
	line	39
	
l5223:	
	clrf	(___awtoft@sign)
	incf	(___awtoft@sign),f
	line	41
	
l5225:	
	movf	(___awtoft@c),w
	movwf	(?___ftpack)
	movf	(___awtoft@c+1),w
	movwf	(?___ftpack+1)
	clrf	(?___ftpack+2)
	movlw	(08Eh)
	movwf	0+(?___ftpack)+03h
	movf	(___awtoft@sign),w
	movwf	0+(?___ftpack)+04h
	fcall	___ftpack
	movf	(0+(?___ftpack)),w
	movwf	(?___awtoft)
	movf	(1+(?___ftpack)),w
	movwf	(?___awtoft+1)
	movf	(2+(?___ftpack)),w
	movwf	(?___awtoft+2)
	line	42
	
l2332:	
	return
	opt stack 0
GLOBAL	__end_of___awtoft
	__end_of___awtoft:
;; =============== function ___awtoft ends ============

	signat	___awtoft,4219
	global	___ftmul
psect	text559,local,class=CODE,delta=2
global __ptext559
__ptext559:

;; *************** function ___ftmul *****************
;; Defined at:
;;		line 52 in file "C:\Program Files (x86)\HI-TECH Software\PICC\9.82\sources\ftmul.c"
;; Parameters:    Size  Location     Type
;;  f1              3   13[BANK0 ] float 
;;  f2              3   16[BANK0 ] float 
;; Auto vars:     Size  Location     Type
;;  f3_as_produc    3   23[BANK0 ] unsigned um
;;  sign            1   27[BANK0 ] unsigned char 
;;  cntr            1   26[BANK0 ] unsigned char 
;;  exp             1   22[BANK0 ] unsigned char 
;; Return value:  Size  Location     Type
;;                  3   13[BANK0 ] float 
;; Registers used:
;;		wreg, status,2, status,0, pclath, cstack
;; Tracked objects:
;;		On entry : 60/0
;;		On exit  : 60/0
;;		Unchanged: FFF9F/0
;; Data sizes:     COMMON   BANK0   BANK1   BANK3   BANK2
;;      Params:         0       6       0       0       0
;;      Locals:         0       6       0       0       0
;;      Temps:          0       3       0       0       0
;;      Totals:         0      15       0       0       0
;;Total ram usage:       15 bytes
;; Hardware stack levels used:    1
;; Hardware stack levels required when called:    1
;; This function calls:
;;		___ftpack
;; This function is called by:
;;		_main
;;		_fround
;;		_scale
;;		_sprintf
;; This function uses a non-reentrant model
;;
psect	text559
	file	"C:\Program Files (x86)\HI-TECH Software\PICC\9.82\sources\ftmul.c"
	line	52
	global	__size_of___ftmul
	__size_of___ftmul	equ	__end_of___ftmul-___ftmul
	
___ftmul:	
	opt	stack 4
; Regs used in ___ftmul: [wreg+status,2+status,0+pclath+cstack]
	line	56
	
l5161:	
	movf	(___ftmul@f1),w
	movwf	((??___ftmul+0)+0)
	movf	(___ftmul@f1+1),w
	movwf	((??___ftmul+0)+0+1)
	movf	(___ftmul@f1+2),w
	movwf	((??___ftmul+0)+0+2)
	clrc
	rlf	(??___ftmul+0)+1,w
	rlf	(??___ftmul+0)+2,w
	movwf	(___ftmul@exp)
	movf	((___ftmul@exp)),f
	skipz
	goto	u2451
	goto	u2450
u2451:
	goto	l5167
u2450:
	line	57
	
l5163:	
	clrf	(?___ftmul)
	clrf	(?___ftmul+1)
	clrf	(?___ftmul+2)
	goto	l2294
	line	58
	
l5167:	
	movf	(___ftmul@f2),w
	movwf	((??___ftmul+0)+0)
	movf	(___ftmul@f2+1),w
	movwf	((??___ftmul+0)+0+1)
	movf	(___ftmul@f2+2),w
	movwf	((??___ftmul+0)+0+2)
	clrc
	rlf	(??___ftmul+0)+1,w
	rlf	(??___ftmul+0)+2,w
	movwf	(___ftmul@sign)
	movf	((___ftmul@sign)),f
	skipz
	goto	u2461
	goto	u2460
u2461:
	goto	l5173
u2460:
	line	59
	
l5169:	
	clrf	(?___ftmul)
	clrf	(?___ftmul+1)
	clrf	(?___ftmul+2)
	goto	l2294
	line	60
	
l5173:	
	movf	(___ftmul@sign),w
	addlw	07Bh
	addwf	(___ftmul@exp),f
	line	61
	
l5175:	
	movf	0+(((___ftmul@f1))+2),w
	movwf	(___ftmul@sign)
	line	62
	
l5177:	
	movf	0+(((___ftmul@f2))+2),w
	xorwf	(___ftmul@sign),f
	line	63
	
l5179:	
	movlw	(080h)
	andwf	(___ftmul@sign),f
	line	64
	
l5181:	
	bsf	(___ftmul@f1)+(15/8),(15)&7
	line	66
	
l5183:	
	bsf	(___ftmul@f2)+(15/8),(15)&7
	line	67
	
l5185:	
	movlw	0FFh
	andwf	(___ftmul@f2),f
	movlw	0FFh
	andwf	(___ftmul@f2+1),f
	movlw	0
	andwf	(___ftmul@f2+2),f
	line	68
	
l5187:	
	clrf	(___ftmul@f3_as_product)
	clrf	(___ftmul@f3_as_product+1)
	clrf	(___ftmul@f3_as_product+2)
	line	69
	
l5189:	
	movlw	(07h)
	movwf	(___ftmul@cntr)
	line	71
	
l5191:	
	btfss	(___ftmul@f1),(0)&7
	goto	u2471
	goto	u2470
u2471:
	goto	l5195
u2470:
	line	72
	
l5193:	
	movf	(___ftmul@f2),w
	addwf	(___ftmul@f3_as_product),f
	movf	(___ftmul@f2+1),w
	clrz
	skipnc
	incf	(___ftmul@f2+1),w
	skipnz
	goto	u2481
	addwf	(___ftmul@f3_as_product+1),f
u2481:
	movf	(___ftmul@f2+2),w
	clrz
	skipnc
	incf	(___ftmul@f2+2),w
	skipnz
	goto	u2482
	addwf	(___ftmul@f3_as_product+2),f
u2482:

	line	73
	
l5195:	
	clrc
	rrf	(___ftmul@f1+2),f
	rrf	(___ftmul@f1+1),f
	rrf	(___ftmul@f1),f
	line	74
	
l5197:	
	clrc
	rlf	(___ftmul@f2),f
	rlf	(___ftmul@f2+1),f
	rlf	(___ftmul@f2+2),f
	line	75
	
l5199:	
	decfsz	(___ftmul@cntr),f
	goto	u2491
	goto	u2490
u2491:
	goto	l5191
u2490:
	line	76
	
l5201:	
	movlw	(09h)
	movwf	(___ftmul@cntr)
	line	78
	
l5203:	
	btfss	(___ftmul@f1),(0)&7
	goto	u2501
	goto	u2500
u2501:
	goto	l5207
u2500:
	line	79
	
l5205:	
	movf	(___ftmul@f2),w
	addwf	(___ftmul@f3_as_product),f
	movf	(___ftmul@f2+1),w
	clrz
	skipnc
	incf	(___ftmul@f2+1),w
	skipnz
	goto	u2511
	addwf	(___ftmul@f3_as_product+1),f
u2511:
	movf	(___ftmul@f2+2),w
	clrz
	skipnc
	incf	(___ftmul@f2+2),w
	skipnz
	goto	u2512
	addwf	(___ftmul@f3_as_product+2),f
u2512:

	line	80
	
l5207:	
	clrc
	rrf	(___ftmul@f1+2),f
	rrf	(___ftmul@f1+1),f
	rrf	(___ftmul@f1),f
	line	81
	
l5209:	
	clrc
	rrf	(___ftmul@f3_as_product+2),f
	rrf	(___ftmul@f3_as_product+1),f
	rrf	(___ftmul@f3_as_product),f
	line	82
	
l5211:	
	decfsz	(___ftmul@cntr),f
	goto	u2521
	goto	u2520
u2521:
	goto	l5203
u2520:
	line	83
	
l5213:	
	movf	(___ftmul@f3_as_product),w
	movwf	(?___ftpack)
	movf	(___ftmul@f3_as_product+1),w
	movwf	(?___ftpack+1)
	movf	(___ftmul@f3_as_product+2),w
	movwf	(?___ftpack+2)
	movf	(___ftmul@exp),w
	movwf	0+(?___ftpack)+03h
	movf	(___ftmul@sign),w
	movwf	0+(?___ftpack)+04h
	fcall	___ftpack
	movf	(0+(?___ftpack)),w
	movwf	(?___ftmul)
	movf	(1+(?___ftpack)),w
	movwf	(?___ftmul+1)
	movf	(2+(?___ftpack)),w
	movwf	(?___ftmul+2)
	line	84
	
l2294:	
	return
	opt stack 0
GLOBAL	__end_of___ftmul
	__end_of___ftmul:
;; =============== function ___ftmul ends ============

	signat	___ftmul,8315
	global	___ftadd
psect	text560,local,class=CODE,delta=2
global __ptext560
__ptext560:

;; *************** function ___ftadd *****************
;; Defined at:
;;		line 87 in file "C:\Program Files (x86)\HI-TECH Software\PICC\9.82\sources\ftadd.c"
;; Parameters:    Size  Location     Type
;;  f1              3   28[BANK0 ] float 
;;  f2              3   31[BANK0 ] float 
;; Auto vars:     Size  Location     Type
;;  exp1            1   39[BANK0 ] unsigned char 
;;  exp2            1   38[BANK0 ] unsigned char 
;;  sign            1   37[BANK0 ] unsigned char 
;; Return value:  Size  Location     Type
;;                  3   28[BANK0 ] float 
;; Registers used:
;;		wreg, status,2, status,0, pclath, cstack
;; Tracked objects:
;;		On entry : 60/0
;;		On exit  : 60/0
;;		Unchanged: FFF9F/0
;; Data sizes:     COMMON   BANK0   BANK1   BANK3   BANK2
;;      Params:         0       6       0       0       0
;;      Locals:         0       3       0       0       0
;;      Temps:          0       3       0       0       0
;;      Totals:         0      12       0       0       0
;;Total ram usage:       12 bytes
;; Hardware stack levels used:    1
;; Hardware stack levels required when called:    1
;; This function calls:
;;		___ftpack
;; This function is called by:
;;		_sprintf
;;		___ftsub
;; This function uses a non-reentrant model
;;
psect	text560
	file	"C:\Program Files (x86)\HI-TECH Software\PICC\9.82\sources\ftadd.c"
	line	87
	global	__size_of___ftadd
	__size_of___ftadd	equ	__end_of___ftadd-___ftadd
	
___ftadd:	
	opt	stack 4
; Regs used in ___ftadd: [wreg+status,2+status,0+pclath+cstack]
	line	90
	
l5083:	
	movf	(___ftadd@f1),w
	movwf	((??___ftadd+0)+0)
	movf	(___ftadd@f1+1),w
	movwf	((??___ftadd+0)+0+1)
	movf	(___ftadd@f1+2),w
	movwf	((??___ftadd+0)+0+2)
	clrc
	rlf	(??___ftadd+0)+1,w
	rlf	(??___ftadd+0)+2,w
	movwf	(___ftadd@exp1)
	line	91
	movf	(___ftadd@f2),w
	movwf	((??___ftadd+0)+0)
	movf	(___ftadd@f2+1),w
	movwf	((??___ftadd+0)+0+1)
	movf	(___ftadd@f2+2),w
	movwf	((??___ftadd+0)+0+2)
	clrc
	rlf	(??___ftadd+0)+1,w
	rlf	(??___ftadd+0)+2,w
	movwf	(___ftadd@exp2)
	line	92
	
l5085:	
	movf	(___ftadd@exp1),w
	skipz
	goto	u2250
	goto	l5091
u2250:
	
l5087:	
	movf	(___ftadd@exp2),w
	subwf	(___ftadd@exp1),w
	skipnc
	goto	u2261
	goto	u2260
u2261:
	goto	l5095
u2260:
	
l5089:	
	movf	(___ftadd@exp2),w
	movwf	(??___ftadd+0)+0
	movf	(___ftadd@exp1),w
	subwf	(??___ftadd+0)+0,f
	movlw	(019h)
	subwf	0+(??___ftadd+0)+0,w
	skipc
	goto	u2271
	goto	u2270
u2271:
	goto	l5095
u2270:
	line	93
	
l5091:	
	movf	(___ftadd@f2),w
	movwf	(?___ftadd)
	movf	(___ftadd@f2+1),w
	movwf	(?___ftadd+1)
	movf	(___ftadd@f2+2),w
	movwf	(?___ftadd+2)
	goto	l2242
	line	94
	
l5095:	
	movf	(___ftadd@exp2),w
	skipz
	goto	u2280
	goto	l2245
u2280:
	
l5097:	
	movf	(___ftadd@exp1),w
	subwf	(___ftadd@exp2),w
	skipnc
	goto	u2291
	goto	u2290
u2291:
	goto	l5101
u2290:
	
l5099:	
	movf	(___ftadd@exp1),w
	movwf	(??___ftadd+0)+0
	movf	(___ftadd@exp2),w
	subwf	(??___ftadd+0)+0,f
	movlw	(019h)
	subwf	0+(??___ftadd+0)+0,w
	skipc
	goto	u2301
	goto	u2300
u2301:
	goto	l5101
u2300:
	
l2245:	
	line	95
	goto	l2242
	line	96
	
l5101:	
	movlw	(06h)
	movwf	(___ftadd@sign)
	line	97
	
l5103:	
	btfss	(___ftadd@f1+2),(23)&7
	goto	u2311
	goto	u2310
u2311:
	goto	l2246
u2310:
	line	98
	
l5105:	
	bsf	(___ftadd@sign)+(7/8),(7)&7
	
l2246:	
	line	99
	btfss	(___ftadd@f2+2),(23)&7
	goto	u2321
	goto	u2320
u2321:
	goto	l2247
u2320:
	line	100
	
l5107:	
	bsf	(___ftadd@sign)+(6/8),(6)&7
	
l2247:	
	line	101
	bsf	(___ftadd@f1)+(15/8),(15)&7
	line	102
	
l5109:	
	movlw	0FFh
	andwf	(___ftadd@f1),f
	movlw	0FFh
	andwf	(___ftadd@f1+1),f
	movlw	0
	andwf	(___ftadd@f1+2),f
	line	103
	
l5111:	
	bsf	(___ftadd@f2)+(15/8),(15)&7
	line	104
	movlw	0FFh
	andwf	(___ftadd@f2),f
	movlw	0FFh
	andwf	(___ftadd@f2+1),f
	movlw	0
	andwf	(___ftadd@f2+2),f
	line	106
	movf	(___ftadd@exp2),w
	subwf	(___ftadd@exp1),w
	skipnc
	goto	u2331
	goto	u2330
u2331:
	goto	l5123
u2330:
	line	110
	
l5113:	
	clrc
	rlf	(___ftadd@f2),f
	rlf	(___ftadd@f2+1),f
	rlf	(___ftadd@f2+2),f
	line	111
	decf	(___ftadd@exp2),f
	line	112
	
l5115:	
	movf	(___ftadd@exp2),w
	xorwf	(___ftadd@exp1),w
	skipnz
	goto	u2341
	goto	u2340
u2341:
	goto	l5121
u2340:
	
l5117:	
	decf	(___ftadd@sign),f
	movf	((___ftadd@sign)),w
	andlw	07h
	btfss	status,2
	goto	u2351
	goto	u2350
u2351:
	goto	l5113
u2350:
	goto	l5121
	line	114
	
l5119:	
	clrc
	rrf	(___ftadd@f1+2),f
	rrf	(___ftadd@f1+1),f
	rrf	(___ftadd@f1),f
	line	115
	incf	(___ftadd@exp1),f
	line	113
	
l5121:	
	movf	(___ftadd@exp1),w
	xorwf	(___ftadd@exp2),w
	skipz
	goto	u2361
	goto	u2360
u2361:
	goto	l5119
u2360:
	goto	l2256
	line	117
	
l5123:	
	movf	(___ftadd@exp1),w
	subwf	(___ftadd@exp2),w
	skipnc
	goto	u2371
	goto	u2370
u2371:
	goto	l2256
u2370:
	line	121
	
l5125:	
	clrc
	rlf	(___ftadd@f1),f
	rlf	(___ftadd@f1+1),f
	rlf	(___ftadd@f1+2),f
	line	122
	decf	(___ftadd@exp1),f
	line	123
	
l5127:	
	movf	(___ftadd@exp2),w
	xorwf	(___ftadd@exp1),w
	skipnz
	goto	u2381
	goto	u2380
u2381:
	goto	l5133
u2380:
	
l5129:	
	decf	(___ftadd@sign),f
	movf	((___ftadd@sign)),w
	andlw	07h
	btfss	status,2
	goto	u2391
	goto	u2390
u2391:
	goto	l5125
u2390:
	goto	l5133
	line	125
	
l5131:	
	clrc
	rrf	(___ftadd@f2+2),f
	rrf	(___ftadd@f2+1),f
	rrf	(___ftadd@f2),f
	line	126
	incf	(___ftadd@exp2),f
	line	124
	
l5133:	
	movf	(___ftadd@exp1),w
	xorwf	(___ftadd@exp2),w
	skipz
	goto	u2401
	goto	u2400
u2401:
	goto	l5131
u2400:
	line	129
	
l2256:	
	btfss	(___ftadd@sign),(7)&7
	goto	u2411
	goto	u2410
u2411:
	goto	l5139
u2410:
	line	131
	
l5135:	
	movlw	0FFh
	xorwf	(___ftadd@f1),f
	movlw	0FFh
	xorwf	(___ftadd@f1+1),f
	movlw	0FFh
	xorwf	(___ftadd@f1+2),f
	line	132
	
l5137:	
	incf	(___ftadd@f1),f
	skipnz
	incf	(___ftadd@f1+1),f
	skipnz
	incf	(___ftadd@f1+2),f
	line	134
	
l5139:	
	btfss	(___ftadd@sign),(6)&7
	goto	u2421
	goto	u2420
u2421:
	goto	l5145
u2420:
	line	136
	
l5141:	
	movlw	0FFh
	xorwf	(___ftadd@f2),f
	movlw	0FFh
	xorwf	(___ftadd@f2+1),f
	movlw	0FFh
	xorwf	(___ftadd@f2+2),f
	line	137
	
l5143:	
	incf	(___ftadd@f2),f
	skipnz
	incf	(___ftadd@f2+1),f
	skipnz
	incf	(___ftadd@f2+2),f
	line	139
	
l5145:	
	clrf	(___ftadd@sign)
	line	140
	
l5147:	
	movf	(___ftadd@f1),w
	addwf	(___ftadd@f2),f
	movf	(___ftadd@f1+1),w
	clrz
	skipnc
	incf	(___ftadd@f1+1),w
	skipnz
	goto	u2431
	addwf	(___ftadd@f2+1),f
u2431:
	movf	(___ftadd@f1+2),w
	clrz
	skipnc
	incf	(___ftadd@f1+2),w
	skipnz
	goto	u2432
	addwf	(___ftadd@f2+2),f
u2432:

	line	141
	
l5149:	
	btfss	(___ftadd@f2+2),(23)&7
	goto	u2441
	goto	u2440
u2441:
	goto	l5157
u2440:
	line	142
	
l5151:	
	movlw	0FFh
	xorwf	(___ftadd@f2),f
	movlw	0FFh
	xorwf	(___ftadd@f2+1),f
	movlw	0FFh
	xorwf	(___ftadd@f2+2),f
	line	143
	
l5153:	
	incf	(___ftadd@f2),f
	skipnz
	incf	(___ftadd@f2+1),f
	skipnz
	incf	(___ftadd@f2+2),f
	line	144
	
l5155:	
	clrf	(___ftadd@sign)
	incf	(___ftadd@sign),f
	line	146
	
l5157:	
	movf	(___ftadd@f2),w
	movwf	(?___ftpack)
	movf	(___ftadd@f2+1),w
	movwf	(?___ftpack+1)
	movf	(___ftadd@f2+2),w
	movwf	(?___ftpack+2)
	movf	(___ftadd@exp1),w
	movwf	0+(?___ftpack)+03h
	movf	(___ftadd@sign),w
	movwf	0+(?___ftpack)+04h
	fcall	___ftpack
	movf	(0+(?___ftpack)),w
	movwf	(?___ftadd)
	movf	(1+(?___ftpack)),w
	movwf	(?___ftadd+1)
	movf	(2+(?___ftpack)),w
	movwf	(?___ftadd+2)
	line	148
	
l2242:	
	return
	opt stack 0
GLOBAL	__end_of___ftadd
	__end_of___ftadd:
;; =============== function ___ftadd ends ============

	signat	___ftadd,8315
	global	_gets_Serial
psect	text561,local,class=CODE,delta=2
global __ptext561
__ptext561:

;; *************** function _gets_Serial *****************
;; Defined at:
;;		line 240 in file "C:\Users\petir\Documents\PIC_PROG\C_PuertoSerial\C_PuertoSerial_usart.c"
;; Parameters:    Size  Location     Type
;;  s               1    wreg     PTR unsigned char 
;;		 -> input(17), main@buffer(15), 
;; Auto vars:     Size  Location     Type
;;  s               1    1[COMMON] PTR unsigned char 
;;		 -> input(17), main@buffer(15), 
;;  c               1    6[COMMON] unsigned char 
;;  i               2    4[COMMON] int 
;;  i               2    2[COMMON] int 
;; Return value:  Size  Location     Type
;;		None               void
;; Registers used:
;;		wreg, fsr0l, fsr0h, status,2, status,0, btemp+1, pclath, cstack
;; Tracked objects:
;;		On entry : 0/0
;;		On exit  : 0/0
;;		Unchanged: FFE00/0
;; Data sizes:     COMMON   BANK0   BANK1   BANK3   BANK2
;;      Params:         0       0       0       0       0
;;      Locals:         6       0       0       0       0
;;      Temps:          1       0       0       0       0
;;      Totals:         7       0       0       0       0
;;Total ram usage:        7 bytes
;; Hardware stack levels used:    1
;; Hardware stack levels required when called:    1
;; This function calls:
;;		_getch
;; This function is called by:
;;		_main
;; This function uses a non-reentrant model
;;
psect	text561
	file	"C:\Users\petir\Documents\PIC_PROG\C_PuertoSerial\C_PuertoSerial_usart.c"
	line	240
	global	__size_of_gets_Serial
	__size_of_gets_Serial	equ	__end_of_gets_Serial-_gets_Serial
	
_gets_Serial:	
	opt	stack 6
; Regs used in _gets_Serial: [wreg-fsr0h+status,2+status,0+btemp+1+pclath+cstack]
;gets_Serial@s stored from wreg
	line	242
	movwf	(gets_Serial@s)
	
l5053:	
;C_PuertoSerial_usart.c: 242: for(int i=0; i<=16; i++) *(s+i)=0;
	clrf	(gets_Serial@i)
	clrf	(gets_Serial@i+1)
	
l5059:	
	movf	(gets_Serial@i),w
	addwf	(gets_Serial@s),w
	movwf	(??_gets_Serial+0)+0
	movf	0+(??_gets_Serial+0)+0,w
	movwf	fsr0
	bcf	status, 7	;select IRP bank0
	clrf	indf
	
l5061:	
	incf	(gets_Serial@i),f
	skipnz
	incf	(gets_Serial@i+1),f
	
l5063:	
	movf	(gets_Serial@i+1),w
	xorlw	80h
	movwf	btemp+1
	movlw	(high(011h))^80h
	subwf	btemp+1,w
	skipz
	goto	u2215
	movlw	low(011h)
	subwf	(gets_Serial@i),w
u2215:

	skipc
	goto	u2211
	goto	u2210
u2211:
	goto	l5059
u2210:
	line	243
	
l5065:	
;C_PuertoSerial_usart.c: 243: for(int i=0; i<16; i++){
	clrf	(gets_Serial@i_1836)
	clrf	(gets_Serial@i_1836+1)
	line	244
	
l5071:	
;C_PuertoSerial_usart.c: 244: char c=getch();
	fcall	_getch
	movwf	(gets_Serial@c)
	line	246
	
l5073:	
;C_PuertoSerial_usart.c: 246: if(c==10 | c==13) break;
	movf	(gets_Serial@c),w
	xorlw	0Ah
	skipnz
	goto	u2221
	goto	u2220
u2221:
	goto	l1121
u2220:
	
l5075:	
	movf	(gets_Serial@c),w
	xorlw	0Dh
	skipz
	goto	u2231
	goto	u2230
u2231:
	goto	l5077
u2230:
	goto	l1121
	line	247
	
l5077:	
;C_PuertoSerial_usart.c: 247: *(s+i)=c;
	movf	(gets_Serial@i_1836),w
	addwf	(gets_Serial@s),w
	movwf	(??_gets_Serial+0)+0
	movf	0+(??_gets_Serial+0)+0,w
	movwf	fsr0
	movf	(gets_Serial@c),w
	bcf	status, 7	;select IRP bank0
	movwf	indf
	line	243
	
l5079:	
	incf	(gets_Serial@i_1836),f
	skipnz
	incf	(gets_Serial@i_1836+1),f
	
l5081:	
	movf	(gets_Serial@i_1836+1),w
	xorlw	80h
	movwf	btemp+1
	movlw	(high(010h))^80h
	subwf	btemp+1,w
	skipz
	goto	u2245
	movlw	low(010h)
	subwf	(gets_Serial@i_1836),w
u2245:

	skipc
	goto	u2241
	goto	u2240
u2241:
	goto	l5071
u2240:
	line	250
	
l1121:	
	return
	opt stack 0
GLOBAL	__end_of_gets_Serial
	__end_of_gets_Serial:
;; =============== function _gets_Serial ends ============

	signat	_gets_Serial,4216
	global	_pause
psect	text562,local,class=CODE,delta=2
global __ptext562
__ptext562:

;; *************** function _pause *****************
;; Defined at:
;;		line 21 in file "C:\Users\petir\Documents\PIC_PROG\C_PuertoSerial\C_PuertoSerial_usart.c"
;; Parameters:    Size  Location     Type
;;  msvalue         2    0[COMMON] unsigned short 
;; Auto vars:     Size  Location     Type
;;  x               2    2[COMMON] unsigned short 
;; Return value:  Size  Location     Type
;;		None               void
;; Registers used:
;;		wreg, status,2, status,0, pclath, cstack
;; Tracked objects:
;;		On entry : 0/0
;;		On exit  : 0/0
;;		Unchanged: FFF9F/0
;; Data sizes:     COMMON   BANK0   BANK1   BANK3   BANK2
;;      Params:         2       0       0       0       0
;;      Locals:         2       0       0       0       0
;;      Temps:          0       0       0       0       0
;;      Totals:         4       0       0       0       0
;;Total ram usage:        4 bytes
;; Hardware stack levels used:    1
;; Hardware stack levels required when called:    1
;; This function calls:
;;		_msecbase
;; This function is called by:
;;		_lcd_write
;;		_lcd_clear
;;		_main
;; This function uses a non-reentrant model
;;
psect	text562
	file	"C:\Users\petir\Documents\PIC_PROG\C_PuertoSerial\C_PuertoSerial_usart.c"
	line	21
	global	__size_of_pause
	__size_of_pause	equ	__end_of_pause-_pause
	
_pause:	
	opt	stack 4
; Regs used in _pause: [wreg+status,2+status,0+pclath+cstack]
	line	22
	
l5045:	
;C_PuertoSerial_usart.c: 22: for (unsigned short x=0; x<=msvalue; x++) msecbase();
	clrf	(pause@x)
	clrf	(pause@x+1)
	goto	l5051
	
l5047:	
	fcall	_msecbase
	
l5049:	
	incf	(pause@x),f
	skipnz
	incf	(pause@x+1),f
	
l5051:	
	movf	(pause@x+1),w
	subwf	(pause@msvalue+1),w
	skipz
	goto	u2205
	movf	(pause@x),w
	subwf	(pause@msvalue),w
u2205:
	skipnc
	goto	u2201
	goto	u2200
u2201:
	goto	l5047
u2200:
	line	23
	
l1064:	
	return
	opt stack 0
GLOBAL	__end_of_pause
	__end_of_pause:
;; =============== function _pause ends ============

	signat	_pause,4216
	global	___awmod
psect	text563,local,class=CODE,delta=2
global __ptext563
__ptext563:

;; *************** function ___awmod *****************
;; Defined at:
;;		line 5 in file "C:\Program Files (x86)\HI-TECH Software\PICC\9.82\sources\awmod.c"
;; Parameters:    Size  Location     Type
;;  divisor         2    0[COMMON] int 
;;  dividend        2    2[COMMON] int 
;; Auto vars:     Size  Location     Type
;;  sign            1    5[COMMON] unsigned char 
;;  counter         1    4[COMMON] unsigned char 
;; Return value:  Size  Location     Type
;;                  2    0[COMMON] int 
;; Registers used:
;;		wreg, status,2, status,0
;; Tracked objects:
;;		On entry : 60/0
;;		On exit  : 60/0
;;		Unchanged: FFF9F/0
;; Data sizes:     COMMON   BANK0   BANK1   BANK3   BANK2
;;      Params:         4       0       0       0       0
;;      Locals:         2       0       0       0       0
;;      Temps:          0       0       0       0       0
;;      Totals:         6       0       0       0       0
;;Total ram usage:        6 bytes
;; Hardware stack levels used:    1
;; This function calls:
;;		Nothing
;; This function is called by:
;;		_scale
;; This function uses a non-reentrant model
;;
psect	text563
	file	"C:\Program Files (x86)\HI-TECH Software\PICC\9.82\sources\awmod.c"
	line	5
	global	__size_of___awmod
	__size_of___awmod	equ	__end_of___awmod-___awmod
	
___awmod:	
	opt	stack 5
; Regs used in ___awmod: [wreg+status,2+status,0]
	line	8
	
l5009:	
	clrf	(___awmod@sign)
	line	9
	
l5011:	
	btfss	(___awmod@dividend+1),7
	goto	u2131
	goto	u2130
u2131:
	goto	l5017
u2130:
	line	10
	
l5013:	
	comf	(___awmod@dividend),f
	comf	(___awmod@dividend+1),f
	incf	(___awmod@dividend),f
	skipnz
	incf	(___awmod@dividend+1),f
	line	11
	
l5015:	
	clrf	(___awmod@sign)
	incf	(___awmod@sign),f
	line	13
	
l5017:	
	btfss	(___awmod@divisor+1),7
	goto	u2141
	goto	u2140
u2141:
	goto	l5021
u2140:
	line	14
	
l5019:	
	comf	(___awmod@divisor),f
	comf	(___awmod@divisor+1),f
	incf	(___awmod@divisor),f
	skipnz
	incf	(___awmod@divisor+1),f
	line	15
	
l5021:	
	movf	(___awmod@divisor+1),w
	iorwf	(___awmod@divisor),w
	skipnz
	goto	u2151
	goto	u2150
u2151:
	goto	l5037
u2150:
	line	16
	
l5023:	
	clrf	(___awmod@counter)
	incf	(___awmod@counter),f
	line	17
	goto	l5027
	line	18
	
l5025:	
	clrc
	rlf	(___awmod@divisor),f
	rlf	(___awmod@divisor+1),f
	line	19
	incf	(___awmod@counter),f
	line	17
	
l5027:	
	btfss	(___awmod@divisor+1),(15)&7
	goto	u2161
	goto	u2160
u2161:
	goto	l5025
u2160:
	line	22
	
l5029:	
	movf	(___awmod@divisor+1),w
	subwf	(___awmod@dividend+1),w
	skipz
	goto	u2175
	movf	(___awmod@divisor),w
	subwf	(___awmod@dividend),w
u2175:
	skipc
	goto	u2171
	goto	u2170
u2171:
	goto	l5033
u2170:
	line	23
	
l5031:	
	movf	(___awmod@divisor),w
	subwf	(___awmod@dividend),f
	movf	(___awmod@divisor+1),w
	skipc
	decf	(___awmod@dividend+1),f
	subwf	(___awmod@dividend+1),f
	line	24
	
l5033:	
	clrc
	rrf	(___awmod@divisor+1),f
	rrf	(___awmod@divisor),f
	line	25
	
l5035:	
	decfsz	(___awmod@counter),f
	goto	u2181
	goto	u2180
u2181:
	goto	l5029
u2180:
	line	27
	
l5037:	
	movf	(___awmod@sign),w
	skipz
	goto	u2190
	goto	l5041
u2190:
	line	28
	
l5039:	
	comf	(___awmod@dividend),f
	comf	(___awmod@dividend+1),f
	incf	(___awmod@dividend),f
	skipnz
	incf	(___awmod@dividend+1),f
	line	29
	
l5041:	
	movf	(___awmod@dividend+1),w
	movwf	(?___awmod+1)
	movf	(___awmod@dividend),w
	movwf	(?___awmod)
	line	30
	
l2413:	
	return
	opt stack 0
GLOBAL	__end_of___awmod
	__end_of___awmod:
;; =============== function ___awmod ends ============

	signat	___awmod,8314
	global	___lldiv
psect	text564,local,class=CODE,delta=2
global __ptext564
__ptext564:

;; *************** function ___lldiv *****************
;; Defined at:
;;		line 5 in file "C:\Program Files (x86)\HI-TECH Software\PICC\9.82\sources\lldiv.c"
;; Parameters:    Size  Location     Type
;;  divisor         4    0[COMMON] unsigned long 
;;  dividend        4    4[COMMON] unsigned long 
;; Auto vars:     Size  Location     Type
;;  quotient        4    8[COMMON] unsigned long 
;;  counter         1   12[COMMON] unsigned char 
;; Return value:  Size  Location     Type
;;                  4    0[COMMON] unsigned long 
;; Registers used:
;;		wreg, status,2, status,0
;; Tracked objects:
;;		On entry : 60/20
;;		On exit  : 60/20
;;		Unchanged: FFF9F/0
;; Data sizes:     COMMON   BANK0   BANK1   BANK3   BANK2
;;      Params:         8       0       0       0       0
;;      Locals:         5       0       0       0       0
;;      Temps:          0       0       0       0       0
;;      Totals:        13       0       0       0       0
;;Total ram usage:       13 bytes
;; Hardware stack levels used:    1
;; This function calls:
;;		Nothing
;; This function is called by:
;;		_sprintf
;; This function uses a non-reentrant model
;;
psect	text564
	file	"C:\Program Files (x86)\HI-TECH Software\PICC\9.82\sources\lldiv.c"
	line	5
	global	__size_of___lldiv
	__size_of___lldiv	equ	__end_of___lldiv-___lldiv
	
___lldiv:	
	opt	stack 6
; Regs used in ___lldiv: [wreg+status,2+status,0]
	line	9
	
l4983:	
	clrf	(___lldiv@quotient)
	clrf	(___lldiv@quotient+1)
	clrf	(___lldiv@quotient+2)
	clrf	(___lldiv@quotient+3)
	line	10
	
l4985:	
	movf	(___lldiv@divisor+3),w
	iorwf	(___lldiv@divisor+2),w
	iorwf	(___lldiv@divisor+1),w
	iorwf	(___lldiv@divisor),w
	skipnz
	goto	u2091
	goto	u2090
u2091:
	goto	l5005
u2090:
	line	11
	
l4987:	
	clrf	(___lldiv@counter)
	incf	(___lldiv@counter),f
	line	12
	goto	l4991
	line	13
	
l4989:	
	clrc
	rlf	(___lldiv@divisor),f
	rlf	(___lldiv@divisor+1),f
	rlf	(___lldiv@divisor+2),f
	rlf	(___lldiv@divisor+3),f
	line	14
	incf	(___lldiv@counter),f
	line	12
	
l4991:	
	btfss	(___lldiv@divisor+3),(31)&7
	goto	u2101
	goto	u2100
u2101:
	goto	l4989
u2100:
	line	17
	
l4993:	
	clrc
	rlf	(___lldiv@quotient),f
	rlf	(___lldiv@quotient+1),f
	rlf	(___lldiv@quotient+2),f
	rlf	(___lldiv@quotient+3),f
	line	18
	
l4995:	
	movf	(___lldiv@divisor+3),w
	subwf	(___lldiv@dividend+3),w
	skipz
	goto	u2115
	movf	(___lldiv@divisor+2),w
	subwf	(___lldiv@dividend+2),w
	skipz
	goto	u2115
	movf	(___lldiv@divisor+1),w
	subwf	(___lldiv@dividend+1),w
	skipz
	goto	u2115
	movf	(___lldiv@divisor),w
	subwf	(___lldiv@dividend),w
u2115:
	skipc
	goto	u2111
	goto	u2110
u2111:
	goto	l5001
u2110:
	line	19
	
l4997:	
	movf	(___lldiv@divisor),w
	subwf	(___lldiv@dividend),f
	movf	(___lldiv@divisor+1),w
	skipc
	incfsz	(___lldiv@divisor+1),w
	subwf	(___lldiv@dividend+1),f
	movf	(___lldiv@divisor+2),w
	skipc
	incfsz	(___lldiv@divisor+2),w
	subwf	(___lldiv@dividend+2),f
	movf	(___lldiv@divisor+3),w
	skipc
	incfsz	(___lldiv@divisor+3),w
	subwf	(___lldiv@dividend+3),f
	line	20
	
l4999:	
	bsf	(___lldiv@quotient)+(0/8),(0)&7
	line	22
	
l5001:	
	clrc
	rrf	(___lldiv@divisor+3),f
	rrf	(___lldiv@divisor+2),f
	rrf	(___lldiv@divisor+1),f
	rrf	(___lldiv@divisor),f
	line	23
	
l5003:	
	decfsz	(___lldiv@counter),f
	goto	u2121
	goto	u2120
u2121:
	goto	l4993
u2120:
	line	25
	
l5005:	
	movf	(___lldiv@quotient+3),w
	movwf	(?___lldiv+3)
	movf	(___lldiv@quotient+2),w
	movwf	(?___lldiv+2)
	movf	(___lldiv@quotient+1),w
	movwf	(?___lldiv+1)
	movf	(___lldiv@quotient),w
	movwf	(?___lldiv)

	line	26
	
l2374:	
	return
	opt stack 0
GLOBAL	__end_of___lldiv
	__end_of___lldiv:
;; =============== function ___lldiv ends ============

	signat	___lldiv,8316
	global	___ftge
psect	text565,local,class=CODE,delta=2
global __ptext565
__ptext565:

;; *************** function ___ftge *****************
;; Defined at:
;;		line 5 in file "C:\Program Files (x86)\HI-TECH Software\PICC\9.82\sources\ftge.c"
;; Parameters:    Size  Location     Type
;;  ff1             3    0[COMMON] float 
;;  ff2             3    3[COMMON] float 
;; Auto vars:     Size  Location     Type
;;		None
;; Return value:  Size  Location     Type
;;		None               void
;; Registers used:
;;		wreg, status,2, status,0
;; Tracked objects:
;;		On entry : 60/20
;;		On exit  : 60/20
;;		Unchanged: FFF9F/0
;; Data sizes:     COMMON   BANK0   BANK1   BANK3   BANK2
;;      Params:         6       0       0       0       0
;;      Locals:         0       0       0       0       0
;;      Temps:          0       0       0       0       0
;;      Totals:         6       0       0       0       0
;;Total ram usage:        6 bytes
;; Hardware stack levels used:    1
;; This function calls:
;;		Nothing
;; This function is called by:
;;		_sprintf
;; This function uses a non-reentrant model
;;
psect	text565
	file	"C:\Program Files (x86)\HI-TECH Software\PICC\9.82\sources\ftge.c"
	line	5
	global	__size_of___ftge
	__size_of___ftge	equ	__end_of___ftge-___ftge
	
___ftge:	
	opt	stack 6
; Regs used in ___ftge: [wreg+status,2+status,0]
	line	6
	
l4963:	
	btfss	(___ftge@ff1+2),(23)&7
	goto	u2061
	goto	u2060
u2061:
	goto	l4967
u2060:
	line	7
	
l4965:	
	movf	(___ftge@ff1),w
	sublw	0
	movwf	(___ftge@ff1)
	movf	(___ftge@ff1+1),w
	skipc
	incfsz	(___ftge@ff1+1),w
	sublw	0
	movwf	1+(___ftge@ff1)
	movf	(___ftge@ff1+2),w
	skipc
	incfsz	(___ftge@ff1+2),w
	sublw	080h
	movwf	2+(___ftge@ff1)
	line	8
	
l4967:	
	btfss	(___ftge@ff2+2),(23)&7
	goto	u2071
	goto	u2070
u2071:
	goto	l4971
u2070:
	line	9
	
l4969:	
	movf	(___ftge@ff2),w
	sublw	0
	movwf	(___ftge@ff2)
	movf	(___ftge@ff2+1),w
	skipc
	incfsz	(___ftge@ff2+1),w
	sublw	0
	movwf	1+(___ftge@ff2)
	movf	(___ftge@ff2+2),w
	skipc
	incfsz	(___ftge@ff2+2),w
	sublw	080h
	movwf	2+(___ftge@ff2)
	line	10
	
l4971:	
	movlw	080h
	xorwf	(___ftge@ff1+2),f
	line	11
	
l4973:	
	movlw	080h
	xorwf	(___ftge@ff2+2),f
	line	12
	
l4975:	
	movf	(___ftge@ff2+2),w
	subwf	(___ftge@ff1+2),w
	skipz
	goto	u2085
	movf	(___ftge@ff2+1),w
	subwf	(___ftge@ff1+1),w
	skipz
	goto	u2085
	movf	(___ftge@ff2),w
	subwf	(___ftge@ff1),w
u2085:
	skipnc
	goto	u2081
	goto	u2080
u2081:
	goto	l4979
u2080:
	
l4977:	
	clrc
	
	goto	l2364
	
l4979:	
	setc
	
	line	13
	
l2364:	
	return
	opt stack 0
GLOBAL	__end_of___ftge
	__end_of___ftge:
;; =============== function ___ftge ends ============

	signat	___ftge,8312
	global	___ftneg
psect	text566,local,class=CODE,delta=2
global __ptext566
__ptext566:

;; *************** function ___ftneg *****************
;; Defined at:
;;		line 16 in file "C:\Program Files (x86)\HI-TECH Software\PICC\9.82\sources\ftneg.c"
;; Parameters:    Size  Location     Type
;;  f1              3    0[COMMON] float 
;; Auto vars:     Size  Location     Type
;;		None
;; Return value:  Size  Location     Type
;;                  3    0[COMMON] float 
;; Registers used:
;;		wreg
;; Tracked objects:
;;		On entry : 160/20
;;		On exit  : 160/20
;;		Unchanged: FFE9F/0
;; Data sizes:     COMMON   BANK0   BANK1   BANK3   BANK2
;;      Params:         3       0       0       0       0
;;      Locals:         0       0       0       0       0
;;      Temps:          0       0       0       0       0
;;      Totals:         3       0       0       0       0
;;Total ram usage:        3 bytes
;; Hardware stack levels used:    1
;; This function calls:
;;		Nothing
;; This function is called by:
;;		_sprintf
;; This function uses a non-reentrant model
;;
psect	text566
	file	"C:\Program Files (x86)\HI-TECH Software\PICC\9.82\sources\ftneg.c"
	line	16
	global	__size_of___ftneg
	__size_of___ftneg	equ	__end_of___ftneg-___ftneg
	
___ftneg:	
	opt	stack 6
; Regs used in ___ftneg: [wreg]
	line	17
	
l4955:	
	movf	(___ftneg@f1+2),w
	iorwf	(___ftneg@f1+1),w
	iorwf	(___ftneg@f1),w
	skipnz
	goto	u2051
	goto	u2050
u2051:
	goto	l4959
u2050:
	line	18
	
l4957:	
	movlw	080h
	xorwf	(___ftneg@f1+2),f
	line	19
	
l4959:	
	line	20
	
l2359:	
	return
	opt stack 0
GLOBAL	__end_of___ftneg
	__end_of___ftneg:
;; =============== function ___ftneg ends ============

	signat	___ftneg,4219
	global	___llmod
psect	text567,local,class=CODE,delta=2
global __ptext567
__ptext567:

;; *************** function ___llmod *****************
;; Defined at:
;;		line 5 in file "C:\Program Files (x86)\HI-TECH Software\PICC\9.82\sources\llmod.c"
;; Parameters:    Size  Location     Type
;;  divisor         4    0[BANK0 ] unsigned long 
;;  dividend        4    4[BANK0 ] unsigned long 
;; Auto vars:     Size  Location     Type
;;  counter         1   13[COMMON] unsigned char 
;; Return value:  Size  Location     Type
;;                  4    0[BANK0 ] unsigned long 
;; Registers used:
;;		wreg, status,2, status,0
;; Tracked objects:
;;		On entry : 60/0
;;		On exit  : 60/0
;;		Unchanged: FFF9F/0
;; Data sizes:     COMMON   BANK0   BANK1   BANK3   BANK2
;;      Params:         0       8       0       0       0
;;      Locals:         1       0       0       0       0
;;      Temps:          0       0       0       0       0
;;      Totals:         1       8       0       0       0
;;Total ram usage:        9 bytes
;; Hardware stack levels used:    1
;; This function calls:
;;		Nothing
;; This function is called by:
;;		_sprintf
;; This function uses a non-reentrant model
;;
psect	text567
	file	"C:\Program Files (x86)\HI-TECH Software\PICC\9.82\sources\llmod.c"
	line	5
	global	__size_of___llmod
	__size_of___llmod	equ	__end_of___llmod-___llmod
	
___llmod:	
	opt	stack 6
; Regs used in ___llmod: [wreg+status,2+status,0]
	line	8
	
l4935:	
	movf	(___llmod@divisor+3),w
	iorwf	(___llmod@divisor+2),w
	iorwf	(___llmod@divisor+1),w
	iorwf	(___llmod@divisor),w
	skipnz
	goto	u2011
	goto	u2010
u2011:
	goto	l4951
u2010:
	line	9
	
l4937:	
	clrf	(___llmod@counter)
	incf	(___llmod@counter),f
	line	10
	goto	l4941
	line	11
	
l4939:	
	clrc
	rlf	(___llmod@divisor),f
	rlf	(___llmod@divisor+1),f
	rlf	(___llmod@divisor+2),f
	rlf	(___llmod@divisor+3),f
	line	12
	incf	(___llmod@counter),f
	line	10
	
l4941:	
	btfss	(___llmod@divisor+3),(31)&7
	goto	u2021
	goto	u2020
u2021:
	goto	l4939
u2020:
	line	15
	
l4943:	
	movf	(___llmod@divisor+3),w
	subwf	(___llmod@dividend+3),w
	skipz
	goto	u2035
	movf	(___llmod@divisor+2),w
	subwf	(___llmod@dividend+2),w
	skipz
	goto	u2035
	movf	(___llmod@divisor+1),w
	subwf	(___llmod@dividend+1),w
	skipz
	goto	u2035
	movf	(___llmod@divisor),w
	subwf	(___llmod@dividend),w
u2035:
	skipc
	goto	u2031
	goto	u2030
u2031:
	goto	l4947
u2030:
	line	16
	
l4945:	
	movf	(___llmod@divisor),w
	subwf	(___llmod@dividend),f
	movf	(___llmod@divisor+1),w
	skipc
	incfsz	(___llmod@divisor+1),w
	subwf	(___llmod@dividend+1),f
	movf	(___llmod@divisor+2),w
	skipc
	incfsz	(___llmod@divisor+2),w
	subwf	(___llmod@dividend+2),f
	movf	(___llmod@divisor+3),w
	skipc
	incfsz	(___llmod@divisor+3),w
	subwf	(___llmod@dividend+3),f
	line	17
	
l4947:	
	clrc
	rrf	(___llmod@divisor+3),f
	rrf	(___llmod@divisor+2),f
	rrf	(___llmod@divisor+1),f
	rrf	(___llmod@divisor),f
	line	18
	
l4949:	
	decfsz	(___llmod@counter),f
	goto	u2041
	goto	u2040
u2041:
	goto	l4943
u2040:
	line	20
	
l4951:	
	movf	(___llmod@dividend+3),w
	movwf	(?___llmod+3)
	movf	(___llmod@dividend+2),w
	movwf	(?___llmod+2)
	movf	(___llmod@dividend+1),w
	movwf	(?___llmod+1)
	movf	(___llmod@dividend),w
	movwf	(?___llmod)

	line	21
	
l2355:	
	return
	opt stack 0
GLOBAL	__end_of___llmod
	__end_of___llmod:
;; =============== function ___llmod ends ============

	signat	___llmod,8316
	global	___awdiv
psect	text568,local,class=CODE,delta=2
global __ptext568
__ptext568:

;; *************** function ___awdiv *****************
;; Defined at:
;;		line 5 in file "C:\Program Files (x86)\HI-TECH Software\PICC\9.82\sources\awdiv.c"
;; Parameters:    Size  Location     Type
;;  divisor         2    6[COMMON] int 
;;  dividend        2    8[COMMON] int 
;; Auto vars:     Size  Location     Type
;;  quotient        2   12[COMMON] int 
;;  sign            1   11[COMMON] unsigned char 
;;  counter         1   10[COMMON] unsigned char 
;; Return value:  Size  Location     Type
;;                  2    6[COMMON] int 
;; Registers used:
;;		wreg, status,2, status,0
;; Tracked objects:
;;		On entry : 40/20
;;		On exit  : 40/20
;;		Unchanged: FFFBF/0
;; Data sizes:     COMMON   BANK0   BANK1   BANK3   BANK2
;;      Params:         4       0       0       0       0
;;      Locals:         4       0       0       0       0
;;      Temps:          0       0       0       0       0
;;      Totals:         8       0       0       0       0
;;Total ram usage:        8 bytes
;; Hardware stack levels used:    1
;; This function calls:
;;		Nothing
;; This function is called by:
;;		_scale
;;		_sprintf
;; This function uses a non-reentrant model
;;
psect	text568
	file	"C:\Program Files (x86)\HI-TECH Software\PICC\9.82\sources\awdiv.c"
	line	5
	global	__size_of___awdiv
	__size_of___awdiv	equ	__end_of___awdiv-___awdiv
	
___awdiv:	
	opt	stack 5
; Regs used in ___awdiv: [wreg+status,2+status,0]
	line	9
	
l4891:	
	clrf	(___awdiv@sign)
	line	10
	
l4893:	
	btfss	(___awdiv@divisor+1),7
	goto	u1941
	goto	u1940
u1941:
	goto	l4899
u1940:
	line	11
	
l4895:	
	comf	(___awdiv@divisor),f
	comf	(___awdiv@divisor+1),f
	incf	(___awdiv@divisor),f
	skipnz
	incf	(___awdiv@divisor+1),f
	line	12
	
l4897:	
	clrf	(___awdiv@sign)
	incf	(___awdiv@sign),f
	line	14
	
l4899:	
	btfss	(___awdiv@dividend+1),7
	goto	u1951
	goto	u1950
u1951:
	goto	l4905
u1950:
	line	15
	
l4901:	
	comf	(___awdiv@dividend),f
	comf	(___awdiv@dividend+1),f
	incf	(___awdiv@dividend),f
	skipnz
	incf	(___awdiv@dividend+1),f
	line	16
	
l4903:	
	movlw	(01h)
	xorwf	(___awdiv@sign),f
	line	18
	
l4905:	
	clrf	(___awdiv@quotient)
	clrf	(___awdiv@quotient+1)
	line	19
	
l4907:	
	movf	(___awdiv@divisor+1),w
	iorwf	(___awdiv@divisor),w
	skipnz
	goto	u1961
	goto	u1960
u1961:
	goto	l4927
u1960:
	line	20
	
l4909:	
	clrf	(___awdiv@counter)
	incf	(___awdiv@counter),f
	line	21
	goto	l4913
	line	22
	
l4911:	
	clrc
	rlf	(___awdiv@divisor),f
	rlf	(___awdiv@divisor+1),f
	line	23
	incf	(___awdiv@counter),f
	line	21
	
l4913:	
	btfss	(___awdiv@divisor+1),(15)&7
	goto	u1971
	goto	u1970
u1971:
	goto	l4911
u1970:
	line	26
	
l4915:	
	clrc
	rlf	(___awdiv@quotient),f
	rlf	(___awdiv@quotient+1),f
	line	27
	
l4917:	
	movf	(___awdiv@divisor+1),w
	subwf	(___awdiv@dividend+1),w
	skipz
	goto	u1985
	movf	(___awdiv@divisor),w
	subwf	(___awdiv@dividend),w
u1985:
	skipc
	goto	u1981
	goto	u1980
u1981:
	goto	l4923
u1980:
	line	28
	
l4919:	
	movf	(___awdiv@divisor),w
	subwf	(___awdiv@dividend),f
	movf	(___awdiv@divisor+1),w
	skipc
	decf	(___awdiv@dividend+1),f
	subwf	(___awdiv@dividend+1),f
	line	29
	
l4921:	
	bsf	(___awdiv@quotient)+(0/8),(0)&7
	line	31
	
l4923:	
	clrc
	rrf	(___awdiv@divisor+1),f
	rrf	(___awdiv@divisor),f
	line	32
	
l4925:	
	decfsz	(___awdiv@counter),f
	goto	u1991
	goto	u1990
u1991:
	goto	l4915
u1990:
	line	34
	
l4927:	
	movf	(___awdiv@sign),w
	skipz
	goto	u2000
	goto	l4931
u2000:
	line	35
	
l4929:	
	comf	(___awdiv@quotient),f
	comf	(___awdiv@quotient+1),f
	incf	(___awdiv@quotient),f
	skipnz
	incf	(___awdiv@quotient+1),f
	line	36
	
l4931:	
	movf	(___awdiv@quotient+1),w
	movwf	(?___awdiv+1)
	movf	(___awdiv@quotient),w
	movwf	(?___awdiv)
	line	37
	
l2345:	
	return
	opt stack 0
GLOBAL	__end_of___awdiv
	__end_of___awdiv:
;; =============== function ___awdiv ends ============

	signat	___awdiv,8314
	global	___fttol
psect	text569,local,class=CODE,delta=2
global __ptext569
__ptext569:

;; *************** function ___fttol *****************
;; Defined at:
;;		line 45 in file "C:\Program Files (x86)\HI-TECH Software\PICC\9.82\sources\fttol.c"
;; Parameters:    Size  Location     Type
;;  f1              3    0[BANK0 ] float 
;; Auto vars:     Size  Location     Type
;;  lval            4    8[BANK0 ] unsigned long 
;;  exp1            1   12[BANK0 ] unsigned char 
;;  sign1           1    7[BANK0 ] unsigned char 
;; Return value:  Size  Location     Type
;;                  4    0[BANK0 ] long 
;; Registers used:
;;		wreg, status,2, status,0
;; Tracked objects:
;;		On entry : 60/0
;;		On exit  : 60/0
;;		Unchanged: FFF9F/0
;; Data sizes:     COMMON   BANK0   BANK1   BANK3   BANK2
;;      Params:         0       4       0       0       0
;;      Locals:         0       6       0       0       0
;;      Temps:          0       3       0       0       0
;;      Totals:         0      13       0       0       0
;;Total ram usage:       13 bytes
;; Hardware stack levels used:    1
;; This function calls:
;;		Nothing
;; This function is called by:
;;		_sprintf
;; This function uses a non-reentrant model
;;
psect	text569
	file	"C:\Program Files (x86)\HI-TECH Software\PICC\9.82\sources\fttol.c"
	line	45
	global	__size_of___fttol
	__size_of___fttol	equ	__end_of___fttol-___fttol
	
___fttol:	
	opt	stack 6
; Regs used in ___fttol: [wreg+status,2+status,0]
	line	49
	
l4853:	
	movf	(___fttol@f1),w
	movwf	((??___fttol+0)+0)
	movf	(___fttol@f1+1),w
	movwf	((??___fttol+0)+0+1)
	movf	(___fttol@f1+2),w
	movwf	((??___fttol+0)+0+2)
	clrc
	rlf	(??___fttol+0)+1,w
	rlf	(??___fttol+0)+2,w
	movwf	(___fttol@exp1)
	movf	((___fttol@exp1)),f
	skipz
	goto	u1861
	goto	u1860
u1861:
	goto	l4857
u1860:
	line	50
	
l4855:	
	clrf	(?___fttol)
	clrf	(?___fttol+1)
	clrf	(?___fttol+2)
	clrf	(?___fttol+3)
	goto	l2305
	line	51
	
l4857:	
	movf	(___fttol@f1),w
	movwf	((??___fttol+0)+0)
	movf	(___fttol@f1+1),w
	movwf	((??___fttol+0)+0+1)
	movf	(___fttol@f1+2),w
	movwf	((??___fttol+0)+0+2)
	movlw	017h
u1875:
	clrc
	rrf	(??___fttol+0)+2,f
	rrf	(??___fttol+0)+1,f
	rrf	(??___fttol+0)+0,f
u1870:
	addlw	-1
	skipz
	goto	u1875
	movf	0+(??___fttol+0)+0,w
	movwf	(___fttol@sign1)
	line	52
	
l4859:	
	bsf	(___fttol@f1)+(15/8),(15)&7
	line	53
	
l4861:	
	movlw	0FFh
	andwf	(___fttol@f1),f
	movlw	0FFh
	andwf	(___fttol@f1+1),f
	movlw	0
	andwf	(___fttol@f1+2),f
	line	54
	
l4863:	
	movf	(___fttol@f1),w
	movwf	(___fttol@lval)
	movf	(___fttol@f1+1),w
	movwf	((___fttol@lval))+1
	movf	(___fttol@f1+2),w
	movwf	((___fttol@lval))+2
	clrf	((___fttol@lval))+3
	line	55
	
l4865:	
	movlw	low(08Eh)
	subwf	(___fttol@exp1),f
	line	56
	
l4867:	
	btfss	(___fttol@exp1),7
	goto	u1881
	goto	u1880
u1881:
	goto	l4877
u1880:
	line	57
	
l4869:	
	movf	(___fttol@exp1),w
	xorlw	80h
	addlw	-((-15)^80h)
	skipnc
	goto	u1891
	goto	u1890
u1891:
	goto	l4873
u1890:
	goto	l4855
	line	60
	
l4873:	
	clrc
	rrf	(___fttol@lval+3),f
	rrf	(___fttol@lval+2),f
	rrf	(___fttol@lval+1),f
	rrf	(___fttol@lval),f
	line	61
	
l4875:	
	incfsz	(___fttol@exp1),f
	goto	u1901
	goto	u1900
u1901:
	goto	l4873
u1900:
	goto	l4883
	line	63
	
l4877:	
	movlw	(018h)
	subwf	(___fttol@exp1),w
	skipc
	goto	u1911
	goto	u1910
u1911:
	goto	l2312
u1910:
	goto	l4855
	line	66
	
l4881:	
	clrc
	rlf	(___fttol@lval),f
	rlf	(___fttol@lval+1),f
	rlf	(___fttol@lval+2),f
	rlf	(___fttol@lval+3),f
	line	67
	decf	(___fttol@exp1),f
	line	68
	
l2312:	
	line	65
	movf	(___fttol@exp1),f
	skipz
	goto	u1921
	goto	u1920
u1921:
	goto	l4881
u1920:
	line	70
	
l4883:	
	movf	(___fttol@sign1),w
	skipz
	goto	u1930
	goto	l4887
u1930:
	line	71
	
l4885:	
	comf	(___fttol@lval),f
	comf	(___fttol@lval+1),f
	comf	(___fttol@lval+2),f
	comf	(___fttol@lval+3),f
	incf	(___fttol@lval),f
	skipnz
	incf	(___fttol@lval+1),f
	skipnz
	incf	(___fttol@lval+2),f
	skipnz
	incf	(___fttol@lval+3),f
	line	72
	
l4887:	
	movf	(___fttol@lval+3),w
	movwf	(?___fttol+3)
	movf	(___fttol@lval+2),w
	movwf	(?___fttol+2)
	movf	(___fttol@lval+1),w
	movwf	(?___fttol+1)
	movf	(___fttol@lval),w
	movwf	(?___fttol)

	line	73
	
l2305:	
	return
	opt stack 0
GLOBAL	__end_of___fttol
	__end_of___fttol:
;; =============== function ___fttol ends ============

	signat	___fttol,4220
	global	___ftpack
psect	text570,local,class=CODE,delta=2
global __ptext570
__ptext570:

;; *************** function ___ftpack *****************
;; Defined at:
;;		line 63 in file "C:\Program Files (x86)\HI-TECH Software\PICC\9.82\sources\float.c"
;; Parameters:    Size  Location     Type
;;  arg             3    0[COMMON] unsigned um
;;  exp             1    3[COMMON] unsigned char 
;;  sign            1    4[COMMON] unsigned char 
;; Auto vars:     Size  Location     Type
;;		None
;; Return value:  Size  Location     Type
;;                  3    0[COMMON] float 
;; Registers used:
;;		wreg, status,2, status,0
;; Tracked objects:
;;		On entry : 40/20
;;		On exit  : 40/20
;;		Unchanged: FFFBF/0
;; Data sizes:     COMMON   BANK0   BANK1   BANK3   BANK2
;;      Params:         5       0       0       0       0
;;      Locals:         0       0       0       0       0
;;      Temps:          3       0       0       0       0
;;      Totals:         8       0       0       0       0
;;Total ram usage:        8 bytes
;; Hardware stack levels used:    1
;; This function calls:
;;		Nothing
;; This function is called by:
;;		___ftadd
;;		___ftmul
;;		___awtoft
;;		___lltoft
;; This function uses a non-reentrant model
;;
psect	text570
	file	"C:\Program Files (x86)\HI-TECH Software\PICC\9.82\sources\float.c"
	line	63
	global	__size_of___ftpack
	__size_of___ftpack	equ	__end_of___ftpack-___ftpack
	
___ftpack:	
	opt	stack 4
; Regs used in ___ftpack: [wreg+status,2+status,0]
	line	64
	
l4825:	
	movf	(___ftpack@exp),w
	skipz
	goto	u1790
	goto	l4829
u1790:
	
l4827:	
	movf	(___ftpack@arg+2),w
	iorwf	(___ftpack@arg+1),w
	iorwf	(___ftpack@arg),w
	skipz
	goto	u1801
	goto	u1800
u1801:
	goto	l4835
u1800:
	line	65
	
l4829:	
	clrf	(?___ftpack)
	clrf	(?___ftpack+1)
	clrf	(?___ftpack+2)
	goto	l2564
	line	67
	
l4833:	
	incf	(___ftpack@exp),f
	line	68
	clrc
	rrf	(___ftpack@arg+2),f
	rrf	(___ftpack@arg+1),f
	rrf	(___ftpack@arg),f
	line	66
	
l4835:	
	movlw	low highword(0FE0000h)
	andwf	(___ftpack@arg+2),w
	btfss	status,2
	goto	u1811
	goto	u1810
u1811:
	goto	l4833
u1810:
	goto	l4839
	line	71
	
l4837:	
	incf	(___ftpack@exp),f
	line	72
	incf	(___ftpack@arg),f
	skipnz
	incf	(___ftpack@arg+1),f
	skipnz
	incf	(___ftpack@arg+2),f
	line	73
	clrc
	rrf	(___ftpack@arg+2),f
	rrf	(___ftpack@arg+1),f
	rrf	(___ftpack@arg),f
	line	70
	
l4839:	
	movlw	low highword(0FF0000h)
	andwf	(___ftpack@arg+2),w
	btfss	status,2
	goto	u1821
	goto	u1820
u1821:
	goto	l4837
u1820:
	goto	l4843
	line	76
	
l4841:	
	decf	(___ftpack@exp),f
	line	77
	clrc
	rlf	(___ftpack@arg),f
	rlf	(___ftpack@arg+1),f
	rlf	(___ftpack@arg+2),f
	line	75
	
l4843:	
	btfss	(___ftpack@arg+1),(15)&7
	goto	u1831
	goto	u1830
u1831:
	goto	l4841
u1830:
	
l2573:	
	line	79
	btfsc	(___ftpack@exp),(0)&7
	goto	u1841
	goto	u1840
u1841:
	goto	l2574
u1840:
	line	80
	
l4845:	
	bcf	(___ftpack@arg)+(15/8),(15)&7
	
l2574:	
	line	81
	clrc
	rrf	(___ftpack@exp),f
	line	82
	
l4847:	
	movf	(___ftpack@exp),w
	movwf	((??___ftpack+0)+0+2)
	clrf	((??___ftpack+0)+0+1)
	clrf	((??___ftpack+0)+0+0)
	movf	0+(??___ftpack+0)+0,w
	iorwf	(___ftpack@arg),f
	movf	1+(??___ftpack+0)+0,w
	iorwf	(___ftpack@arg+1),f
	movf	2+(??___ftpack+0)+0,w
	iorwf	(___ftpack@arg+2),f
	line	83
	
l4849:	
	movf	(___ftpack@sign),w
	skipz
	goto	u1850
	goto	l2575
u1850:
	line	84
	
l4851:	
	bsf	(___ftpack@arg)+(23/8),(23)&7
	
l2575:	
	line	85
	line	86
	
l2564:	
	return
	opt stack 0
GLOBAL	__end_of___ftpack
	__end_of___ftpack:
;; =============== function ___ftpack ends ============

	signat	___ftpack,12411
	global	___lbmod
psect	text571,local,class=CODE,delta=2
global __ptext571
__ptext571:

;; *************** function ___lbmod *****************
;; Defined at:
;;		line 5 in file "C:\Program Files (x86)\HI-TECH Software\PICC\9.82\sources\lbmod.c"
;; Parameters:    Size  Location     Type
;;  dividend        1    wreg     unsigned char 
;;  divisor         1    0[COMMON] unsigned char 
;; Auto vars:     Size  Location     Type
;;  dividend        1    2[COMMON] unsigned char 
;;  rem             1    4[COMMON] unsigned char 
;;  counter         1    3[COMMON] unsigned char 
;; Return value:  Size  Location     Type
;;                  1    wreg      unsigned char 
;; Registers used:
;;		wreg, status,2, status,0
;; Tracked objects:
;;		On entry : 160/0
;;		On exit  : 160/0
;;		Unchanged: FFE9F/0
;; Data sizes:     COMMON   BANK0   BANK1   BANK3   BANK2
;;      Params:         1       0       0       0       0
;;      Locals:         3       0       0       0       0
;;      Temps:          1       0       0       0       0
;;      Totals:         5       0       0       0       0
;;Total ram usage:        5 bytes
;; Hardware stack levels used:    1
;; This function calls:
;;		Nothing
;; This function is called by:
;;		_fround
;; This function uses a non-reentrant model
;;
psect	text571
	file	"C:\Program Files (x86)\HI-TECH Software\PICC\9.82\sources\lbmod.c"
	line	5
	global	__size_of___lbmod
	__size_of___lbmod	equ	__end_of___lbmod-___lbmod
	
___lbmod:	
	opt	stack 5
; Regs used in ___lbmod: [wreg+status,2+status,0]
;___lbmod@dividend stored from wreg
	line	9
	movwf	(___lbmod@dividend)
	
l4807:	
	movlw	(08h)
	movwf	(___lbmod@counter)
	line	10
	
l4809:	
	clrf	(___lbmod@rem)
	line	12
	
l4811:	
	movf	(___lbmod@dividend),w
	movwf	(??___lbmod+0)+0
	movlw	07h
u1765:
	clrc
	rrf	(??___lbmod+0)+0,f
	addlw	-1
	skipz
	goto	u1765
	clrc
	rlf	(___lbmod@rem),w
	iorwf	0+(??___lbmod+0)+0,w
	movwf	(___lbmod@rem)
	line	13
	
l4813:	
	clrc
	rlf	(___lbmod@dividend),f
	line	14
	
l4815:	
	movf	(___lbmod@divisor),w
	subwf	(___lbmod@rem),w
	skipc
	goto	u1771
	goto	u1770
u1771:
	goto	l4819
u1770:
	line	15
	
l4817:	
	movf	(___lbmod@divisor),w
	subwf	(___lbmod@rem),f
	line	16
	
l4819:	
	decfsz	(___lbmod@counter),f
	goto	u1781
	goto	u1780
u1781:
	goto	l4811
u1780:
	line	17
	
l4821:	
	movf	(___lbmod@rem),w
	line	18
	
l2234:	
	return
	opt stack 0
GLOBAL	__end_of___lbmod
	__end_of___lbmod:
;; =============== function ___lbmod ends ============

	signat	___lbmod,8313
	global	___lbdiv
psect	text572,local,class=CODE,delta=2
global __ptext572
__ptext572:

;; *************** function ___lbdiv *****************
;; Defined at:
;;		line 5 in file "C:\Program Files (x86)\HI-TECH Software\PICC\9.82\sources\lbdiv.c"
;; Parameters:    Size  Location     Type
;;  dividend        1    wreg     unsigned char 
;;  divisor         1    5[COMMON] unsigned char 
;; Auto vars:     Size  Location     Type
;;  dividend        1    6[COMMON] unsigned char 
;;  quotient        1    8[COMMON] unsigned char 
;;  counter         1    7[COMMON] unsigned char 
;; Return value:  Size  Location     Type
;;                  1    wreg      unsigned char 
;; Registers used:
;;		wreg, status,2, status,0
;; Tracked objects:
;;		On entry : 160/0
;;		On exit  : 160/0
;;		Unchanged: FFE9F/0
;; Data sizes:     COMMON   BANK0   BANK1   BANK3   BANK2
;;      Params:         1       0       0       0       0
;;      Locals:         3       0       0       0       0
;;      Temps:          0       0       0       0       0
;;      Totals:         4       0       0       0       0
;;Total ram usage:        4 bytes
;; Hardware stack levels used:    1
;; This function calls:
;;		Nothing
;; This function is called by:
;;		_fround
;; This function uses a non-reentrant model
;;
psect	text572
	file	"C:\Program Files (x86)\HI-TECH Software\PICC\9.82\sources\lbdiv.c"
	line	5
	global	__size_of___lbdiv
	__size_of___lbdiv	equ	__end_of___lbdiv-___lbdiv
	
___lbdiv:	
	opt	stack 5
; Regs used in ___lbdiv: [wreg+status,2+status,0]
;___lbdiv@dividend stored from wreg
	line	9
	movwf	(___lbdiv@dividend)
	
l4783:	
	clrf	(___lbdiv@quotient)
	line	10
	
l4785:	
	movf	(___lbdiv@divisor),w
	skipz
	goto	u1720
	goto	l4803
u1720:
	line	11
	
l4787:	
	clrf	(___lbdiv@counter)
	incf	(___lbdiv@counter),f
	line	12
	goto	l4791
	
l2223:	
	line	13
	clrc
	rlf	(___lbdiv@divisor),f
	line	14
	
l4789:	
	incf	(___lbdiv@counter),f
	line	12
	
l4791:	
	btfss	(___lbdiv@divisor),(7)&7
	goto	u1731
	goto	u1730
u1731:
	goto	l2223
u1730:
	line	16
	
l2225:	
	line	17
	clrc
	rlf	(___lbdiv@quotient),f
	line	18
	
l4793:	
	movf	(___lbdiv@divisor),w
	subwf	(___lbdiv@dividend),w
	skipc
	goto	u1741
	goto	u1740
u1741:
	goto	l4799
u1740:
	line	19
	
l4795:	
	movf	(___lbdiv@divisor),w
	subwf	(___lbdiv@dividend),f
	line	20
	
l4797:	
	bsf	(___lbdiv@quotient)+(0/8),(0)&7
	line	22
	
l4799:	
	clrc
	rrf	(___lbdiv@divisor),f
	line	23
	
l4801:	
	decfsz	(___lbdiv@counter),f
	goto	u1751
	goto	u1750
u1751:
	goto	l2225
u1750:
	line	25
	
l4803:	
	movf	(___lbdiv@quotient),w
	line	26
	
l2228:	
	return
	opt stack 0
GLOBAL	__end_of___lbdiv
	__end_of___lbdiv:
;; =============== function ___lbdiv ends ============

	signat	___lbdiv,8313
	global	___wmul
psect	text573,local,class=CODE,delta=2
global __ptext573
__ptext573:

;; *************** function ___wmul *****************
;; Defined at:
;;		line 3 in file "C:\Program Files (x86)\HI-TECH Software\PICC\9.82\sources\wmul.c"
;; Parameters:    Size  Location     Type
;;  multiplier      2    0[COMMON] unsigned int 
;;  multiplicand    2    2[COMMON] unsigned int 
;; Auto vars:     Size  Location     Type
;;  product         2    4[COMMON] unsigned int 
;; Return value:  Size  Location     Type
;;                  2    0[COMMON] unsigned int 
;; Registers used:
;;		wreg, status,2, status,0
;; Tracked objects:
;;		On entry : 160/20
;;		On exit  : 160/20
;;		Unchanged: FFE9F/0
;; Data sizes:     COMMON   BANK0   BANK1   BANK3   BANK2
;;      Params:         4       0       0       0       0
;;      Locals:         2       0       0       0       0
;;      Temps:          0       0       0       0       0
;;      Totals:         6       0       0       0       0
;;Total ram usage:        6 bytes
;; Hardware stack levels used:    1
;; This function calls:
;;		Nothing
;; This function is called by:
;;		_fround
;;		_scale
;;		_sprintf
;; This function uses a non-reentrant model
;;
psect	text573
	file	"C:\Program Files (x86)\HI-TECH Software\PICC\9.82\sources\wmul.c"
	line	3
	global	__size_of___wmul
	__size_of___wmul	equ	__end_of___wmul-___wmul
	
___wmul:	
	opt	stack 6
; Regs used in ___wmul: [wreg+status,2+status,0]
	line	4
	
l4767:	
	clrf	(___wmul@product)
	clrf	(___wmul@product+1)
	line	7
	
l4769:	
	btfss	(___wmul@multiplier),(0)&7
	goto	u1701
	goto	u1700
u1701:
	goto	l4773
u1700:
	line	8
	
l4771:	
	movf	(___wmul@multiplicand),w
	addwf	(___wmul@product),f
	skipnc
	incf	(___wmul@product+1),f
	movf	(___wmul@multiplicand+1),w
	addwf	(___wmul@product+1),f
	line	9
	
l4773:	
	clrc
	rlf	(___wmul@multiplicand),f
	rlf	(___wmul@multiplicand+1),f
	line	10
	
l4775:	
	clrc
	rrf	(___wmul@multiplier+1),f
	rrf	(___wmul@multiplier),f
	line	11
	
l4777:	
	movf	((___wmul@multiplier+1)),w
	iorwf	((___wmul@multiplier)),w
	skipz
	goto	u1711
	goto	u1710
u1711:
	goto	l4769
u1710:
	line	12
	
l4779:	
	movf	(___wmul@product+1),w
	movwf	(?___wmul+1)
	movf	(___wmul@product),w
	movwf	(?___wmul)
	line	13
	
l2198:	
	return
	opt stack 0
GLOBAL	__end_of___wmul
	__end_of___wmul:
;; =============== function ___wmul ends ============

	signat	___wmul,8314
	global	___bmul
psect	text574,local,class=CODE,delta=2
global __ptext574
__ptext574:

;; *************** function ___bmul *****************
;; Defined at:
;;		line 3 in file "C:\Program Files (x86)\HI-TECH Software\PICC\9.82\sources\bmul.c"
;; Parameters:    Size  Location     Type
;;  multiplier      1    wreg     unsigned char 
;;  multiplicand    1    9[COMMON] unsigned char 
;; Auto vars:     Size  Location     Type
;;  multiplier      1   11[COMMON] unsigned char 
;;  product         1   10[COMMON] unsigned char 
;; Return value:  Size  Location     Type
;;                  1    wreg      unsigned char 
;; Registers used:
;;		wreg, status,2, status,0
;; Tracked objects:
;;		On entry : 60/0
;;		On exit  : 60/0
;;		Unchanged: FFF9F/0
;; Data sizes:     COMMON   BANK0   BANK1   BANK3   BANK2
;;      Params:         1       0       0       0       0
;;      Locals:         2       0       0       0       0
;;      Temps:          0       0       0       0       0
;;      Totals:         3       0       0       0       0
;;Total ram usage:        3 bytes
;; Hardware stack levels used:    1
;; This function calls:
;;		Nothing
;; This function is called by:
;;		_fround
;;		_scale
;; This function uses a non-reentrant model
;;
psect	text574
	file	"C:\Program Files (x86)\HI-TECH Software\PICC\9.82\sources\bmul.c"
	line	3
	global	__size_of___bmul
	__size_of___bmul	equ	__end_of___bmul-___bmul
	
___bmul:	
	opt	stack 5
; Regs used in ___bmul: [wreg+status,2+status,0]
;___bmul@multiplier stored from wreg
	movwf	(___bmul@multiplier)
	line	4
	
l4751:	
	clrf	(___bmul@product)
	line	7
	
l4753:	
	btfss	(___bmul@multiplier),(0)&7
	goto	u1681
	goto	u1680
u1681:
	goto	l4757
u1680:
	line	8
	
l4755:	
	movf	(___bmul@multiplicand),w
	addwf	(___bmul@product),f
	line	9
	
l4757:	
	clrc
	rlf	(___bmul@multiplicand),f
	line	10
	
l4759:	
	clrc
	rrf	(___bmul@multiplier),f
	line	11
	
l4761:	
	movf	(___bmul@multiplier),f
	skipz
	goto	u1691
	goto	u1690
u1691:
	goto	l4753
u1690:
	line	12
	
l4763:	
	movf	(___bmul@product),w
	line	13
	
l2192:	
	return
	opt stack 0
GLOBAL	__end_of___bmul
	__end_of___bmul:
;; =============== function ___bmul ends ============

	signat	___bmul,8313
	global	__div_to_l_
psect	text575,local,class=CODE,delta=2
global __ptext575
__ptext575:

;; *************** function __div_to_l_ *****************
;; Defined at:
;;		line 61 in file "C:\Program Files (x86)\HI-TECH Software\PICC\9.82\sources\fldivl.c"
;; Parameters:    Size  Location     Type
;;  f1              3    0[COMMON] unsigned char 
;;  f2              3    3[COMMON] unsigned char 
;; Auto vars:     Size  Location     Type
;;  quot            4    0[BANK0 ] unsigned long 
;;  exp1            1    5[BANK0 ] unsigned char 
;;  cntr            1    4[BANK0 ] unsigned char 
;; Return value:  Size  Location     Type
;;                  4    0[COMMON] unsigned long 
;; Registers used:
;;		wreg, fsr0l, fsr0h, status,2, status,0
;; Tracked objects:
;;		On entry : 0/0
;;		On exit  : 60/0
;;		Unchanged: FFF9F/0
;; Data sizes:     COMMON   BANK0   BANK1   BANK3   BANK2
;;      Params:         6       0       0       0       0
;;      Locals:         0       6       0       0       0
;;      Temps:          8       0       0       0       0
;;      Totals:        14       6       0       0       0
;;Total ram usage:       20 bytes
;; Hardware stack levels used:    1
;; This function calls:
;;		Nothing
;; This function is called by:
;;		_sprintf
;; This function uses a non-reentrant model
;;
psect	text575
	file	"C:\Program Files (x86)\HI-TECH Software\PICC\9.82\sources\fldivl.c"
	line	61
	global	__size_of__div_to_l_
	__size_of__div_to_l_	equ	__end_of__div_to_l_-__div_to_l_
	
__div_to_l_:	
	opt	stack 6
; Regs used in __div_to_l_: [wreg-fsr0h+status,2+status,0]
	line	66
	
l4705:	
	movlw	low(__div_to_l_@f1)
	movwf	fsr0
	movf	indf,w
	movwf	(??__div_to_l_+0)+0+0
	incf	fsr0,f
	movf	indf,w
	movwf	(??__div_to_l_+0)+0+1
	incf	fsr0,f
	movf	indf,w
	movwf	(??__div_to_l_+0)+0+2
	incf	fsr0,f
	movf	indf,w
	movwf	(??__div_to_l_+0)+0+3
	clrc
	rlf	(??__div_to_l_+0)+2,w
	rlf	(??__div_to_l_+0)+3,w
	bcf	status, 5	;RP0=0, select bank0
	bcf	status, 6	;RP1=0, select bank0
	movwf	(__div_to_l_@exp1)
	movf	((__div_to_l_@exp1)),f
	skipz
	goto	u1591
	goto	u1590
u1591:
	goto	l4709
u1590:
	line	67
	
l4707:	
	clrf	(?__div_to_l_)
	clrf	(?__div_to_l_+1)
	clrf	(?__div_to_l_+2)
	clrf	(?__div_to_l_+3)
	goto	l2482
	line	68
	
l4709:	
	movlw	low(__div_to_l_@f2)
	movwf	fsr0
	movf	indf,w
	movwf	(??__div_to_l_+0)+0+0
	incf	fsr0,f
	movf	indf,w
	movwf	(??__div_to_l_+0)+0+1
	incf	fsr0,f
	movf	indf,w
	movwf	(??__div_to_l_+0)+0+2
	incf	fsr0,f
	movf	indf,w
	movwf	(??__div_to_l_+0)+0+3
	clrc
	rlf	(??__div_to_l_+0)+2,w
	rlf	(??__div_to_l_+0)+3,w
	movwf	(__div_to_l_@cntr)
	movf	((__div_to_l_@cntr)),f
	skipz
	goto	u1601
	goto	u1600
u1601:
	goto	l4713
u1600:
	goto	l4707
	line	70
	
l4713:	
	movlw	low(__div_to_l_@f1)
	movwf	fsr0
	movlw	0
	iorwf	indf,f
	incf	fsr0,f
	movlw	0
	iorwf	indf,f
	incf	fsr0,f
	movlw	080h
	iorwf	indf,f
	incf	fsr0,f
	movlw	0
	iorwf	indf,f
	line	71
	movlw	low(__div_to_l_@f1)
	movwf	fsr0
	movlw	0FFh
	andwf	indf,f
	incf	fsr0,f
	movlw	0FFh
	andwf	indf,f
	incf	fsr0,f
	movlw	0FFh
	andwf	indf,f
	incf	fsr0,f
	movlw	0
	andwf	indf,f
	line	72
	movlw	low(__div_to_l_@f2)
	movwf	fsr0
	movlw	0
	iorwf	indf,f
	incf	fsr0,f
	movlw	0
	iorwf	indf,f
	incf	fsr0,f
	movlw	080h
	iorwf	indf,f
	incf	fsr0,f
	movlw	0
	iorwf	indf,f
	line	73
	movlw	low(__div_to_l_@f2)
	movwf	fsr0
	movlw	0FFh
	andwf	indf,f
	incf	fsr0,f
	movlw	0FFh
	andwf	indf,f
	incf	fsr0,f
	movlw	0FFh
	andwf	indf,f
	incf	fsr0,f
	movlw	0
	andwf	indf,f
	line	74
	
l4715:	
	clrf	(__div_to_l_@quot)
	clrf	(__div_to_l_@quot+1)
	clrf	(__div_to_l_@quot+2)
	clrf	(__div_to_l_@quot+3)
	line	75
	
l4717:	
	movlw	low(07Fh)
	subwf	(__div_to_l_@exp1),f
	line	76
	
l4719:	
	movlw	(0A0h)
	addwf	(__div_to_l_@cntr),w
	movwf	(??__div_to_l_+0)+0
	movf	0+(??__div_to_l_+0)+0,w
	subwf	(__div_to_l_@exp1),f
	line	77
	
l4721:	
	movlw	(020h)
	movwf	(__div_to_l_@cntr)
	line	79
	
l4723:	
	clrc
	rlf	(__div_to_l_@quot),f
	rlf	(__div_to_l_@quot+1),f
	rlf	(__div_to_l_@quot+2),f
	rlf	(__div_to_l_@quot+3),f
	line	80
	
l4725:	
	movlw	low(__div_to_l_@f2)
	movwf	fsr0
	movf	indf,w
	movwf	(??__div_to_l_+0)+0+0
	incf	fsr0,f
	movf	indf,w
	movwf	(??__div_to_l_+0)+0+1
	incf	fsr0,f
	movf	indf,w
	movwf	(??__div_to_l_+0)+0+2
	incf	fsr0,f
	movf	indf,w
	movwf	(??__div_to_l_+0)+0+3
	movlw	low(__div_to_l_@f1)
	movwf	fsr0
	movf	indf,w
	movwf	(??__div_to_l_+4)+0+0
	incf	fsr0,f
	movf	indf,w
	movwf	(??__div_to_l_+4)+0+1
	incf	fsr0,f
	movf	indf,w
	movwf	(??__div_to_l_+4)+0+2
	incf	fsr0,f
	movf	indf,w
	movwf	(??__div_to_l_+4)+0+3
	movf	3+(??__div_to_l_+0)+0,w
	subwf	3+(??__div_to_l_+4)+0,w
	skipz
	goto	u1615
	movf	2+(??__div_to_l_+0)+0,w
	subwf	2+(??__div_to_l_+4)+0,w
	skipz
	goto	u1615
	movf	1+(??__div_to_l_+0)+0,w
	subwf	1+(??__div_to_l_+4)+0,w
	skipz
	goto	u1615
	movf	0+(??__div_to_l_+0)+0,w
	subwf	0+(??__div_to_l_+4)+0,w
u1615:
	skipc
	goto	u1611
	goto	u1610
u1611:
	goto	l2485
u1610:
	line	81
	
l4727:	
	movlw	low(__div_to_l_@f2)
	movwf	fsr0
	movf	indf,w
	movwf	(??__div_to_l_+0)+0+0
	incf	fsr0,f
	movf	indf,w
	movwf	(??__div_to_l_+0)+0+1
	incf	fsr0,f
	movf	indf,w
	movwf	(??__div_to_l_+0)+0+2
	incf	fsr0,f
	movf	indf,w
	movwf	(??__div_to_l_+0)+0+3
	movlw	low(__div_to_l_@f1)
	movwf	fsr0
	movf	0+(??__div_to_l_+0)+0,w
	subwf	indf,f
	incf	fsr0
	movf	1+(??__div_to_l_+0)+0,w
	skipc
	incfsz	1+(??__div_to_l_+0)+0,w
	subwf	indf,f
	incf	fsr0
	movf	2+(??__div_to_l_+0)+0,w
	skipc
	incfsz	2+(??__div_to_l_+0)+0,w
	subwf	indf,f
	incf	fsr0
	movf	3+(??__div_to_l_+0)+0,w
	skipc
	incf	3+(??__div_to_l_+0)+0,w
	subwf	indf,f
	movlw	3
	subwf	fsr0
	line	82
	
l4729:	
	bsf	(__div_to_l_@quot)+(0/8),(0)&7
	line	83
	
l2485:	
	line	84
	movlw	low(__div_to_l_@f1)
	movwf	fsr0
	clrc
	rlf	indf,f
	incf	fsr0,f
	rlf	indf,f
	incf	fsr0,f
	rlf	indf,f
	incf	fsr0,f
	rlf	indf,f
	line	85
	
l4731:	
	decfsz	(__div_to_l_@cntr),f
	goto	u1621
	goto	u1620
u1621:
	goto	l4723
u1620:
	
l2486:	
	line	86
	btfss	(__div_to_l_@exp1),7
	goto	u1631
	goto	u1630
u1631:
	goto	l4741
u1630:
	line	87
	
l4733:	
	movf	(__div_to_l_@exp1),w
	xorlw	80h
	addlw	-((-31)^80h)
	skipnc
	goto	u1641
	goto	u1640
u1641:
	goto	l4737
u1640:
	goto	l4707
	line	90
	
l4737:	
	clrc
	rrf	(__div_to_l_@quot+3),f
	rrf	(__div_to_l_@quot+2),f
	rrf	(__div_to_l_@quot+1),f
	rrf	(__div_to_l_@quot),f
	line	91
	
l4739:	
	incfsz	(__div_to_l_@exp1),f
	goto	u1651
	goto	u1650
u1651:
	goto	l4737
u1650:
	goto	l4747
	line	93
	
l4741:	
	movlw	(020h)
	subwf	(__div_to_l_@exp1),w
	skipc
	goto	u1661
	goto	u1660
u1661:
	goto	l2493
u1660:
	goto	l4707
	line	96
	
l4745:	
	clrc
	rlf	(__div_to_l_@quot),f
	rlf	(__div_to_l_@quot+1),f
	rlf	(__div_to_l_@quot+2),f
	rlf	(__div_to_l_@quot+3),f
	line	97
	decf	(__div_to_l_@exp1),f
	line	98
	
l2493:	
	line	95
	movf	(__div_to_l_@exp1),f
	skipz
	goto	u1671
	goto	u1670
u1671:
	goto	l4745
u1670:
	line	100
	
l4747:	
	movf	(__div_to_l_@quot+3),w
	movwf	(?__div_to_l_+3)
	movf	(__div_to_l_@quot+2),w
	movwf	(?__div_to_l_+2)
	movf	(__div_to_l_@quot+1),w
	movwf	(?__div_to_l_+1)
	movf	(__div_to_l_@quot),w
	movwf	(?__div_to_l_)

	line	101
	
l2482:	
	return
	opt stack 0
GLOBAL	__end_of__div_to_l_
	__end_of__div_to_l_:
;; =============== function __div_to_l_ ends ============

	signat	__div_to_l_,8316
	global	__tdiv_to_l_
psect	text576,local,class=CODE,delta=2
global __ptext576
__ptext576:

;; *************** function __tdiv_to_l_ *****************
;; Defined at:
;;		line 61 in file "C:\Program Files (x86)\HI-TECH Software\PICC\9.82\sources\ftdivl.c"
;; Parameters:    Size  Location     Type
;;  f1              3    0[COMMON] float 
;;  f2              3    3[COMMON] float 
;; Auto vars:     Size  Location     Type
;;  quot            4    0[BANK0 ] unsigned long 
;;  exp1            1    5[BANK0 ] unsigned char 
;;  cntr            1    4[BANK0 ] unsigned char 
;; Return value:  Size  Location     Type
;;                  4    0[COMMON] unsigned long 
;; Registers used:
;;		wreg, status,2, status,0
;; Tracked objects:
;;		On entry : 60/20
;;		On exit  : 60/0
;;		Unchanged: FFF9F/0
;; Data sizes:     COMMON   BANK0   BANK1   BANK3   BANK2
;;      Params:         6       0       0       0       0
;;      Locals:         0       6       0       0       0
;;      Temps:          3       0       0       0       0
;;      Totals:         9       6       0       0       0
;;Total ram usage:       15 bytes
;; Hardware stack levels used:    1
;; This function calls:
;;		Nothing
;; This function is called by:
;;		_sprintf
;; This function uses a non-reentrant model
;;
psect	text576
	file	"C:\Program Files (x86)\HI-TECH Software\PICC\9.82\sources\ftdivl.c"
	line	61
	global	__size_of__tdiv_to_l_
	__size_of__tdiv_to_l_	equ	__end_of__tdiv_to_l_-__tdiv_to_l_
	
__tdiv_to_l_:	
	opt	stack 6
; Regs used in __tdiv_to_l_: [wreg+status,2+status,0]
	line	66
	
l4657:	
	movf	(__tdiv_to_l_@f1),w
	movwf	((??__tdiv_to_l_+0)+0)
	movf	(__tdiv_to_l_@f1+1),w
	movwf	((??__tdiv_to_l_+0)+0+1)
	movf	(__tdiv_to_l_@f1+2),w
	movwf	((??__tdiv_to_l_+0)+0+2)
	clrc
	rlf	(??__tdiv_to_l_+0)+1,w
	rlf	(??__tdiv_to_l_+0)+2,w
	bcf	status, 5	;RP0=0, select bank0
	movwf	(__tdiv_to_l_@exp1)
	movf	((__tdiv_to_l_@exp1)),f
	skipz
	goto	u1501
	goto	u1500
u1501:
	goto	l4661
u1500:
	line	67
	
l4659:	
	clrf	(?__tdiv_to_l_)
	clrf	(?__tdiv_to_l_+1)
	clrf	(?__tdiv_to_l_+2)
	clrf	(?__tdiv_to_l_+3)
	goto	l2439
	line	68
	
l4661:	
	movf	(__tdiv_to_l_@f2),w
	movwf	((??__tdiv_to_l_+0)+0)
	movf	(__tdiv_to_l_@f2+1),w
	movwf	((??__tdiv_to_l_+0)+0+1)
	movf	(__tdiv_to_l_@f2+2),w
	movwf	((??__tdiv_to_l_+0)+0+2)
	clrc
	rlf	(??__tdiv_to_l_+0)+1,w
	rlf	(??__tdiv_to_l_+0)+2,w
	movwf	(__tdiv_to_l_@cntr)
	movf	((__tdiv_to_l_@cntr)),f
	skipz
	goto	u1511
	goto	u1510
u1511:
	goto	l2440
u1510:
	goto	l4659
	line	69
	
l2440:	
	line	70
	bsf	(__tdiv_to_l_@f1)+(15/8),(15)&7
	line	71
	
l4665:	
	movlw	0FFh
	andwf	(__tdiv_to_l_@f1),f
	movlw	0FFh
	andwf	(__tdiv_to_l_@f1+1),f
	movlw	0
	andwf	(__tdiv_to_l_@f1+2),f
	line	72
	
l4667:	
	bsf	(__tdiv_to_l_@f2)+(15/8),(15)&7
	line	73
	movlw	0FFh
	andwf	(__tdiv_to_l_@f2),f
	movlw	0FFh
	andwf	(__tdiv_to_l_@f2+1),f
	movlw	0
	andwf	(__tdiv_to_l_@f2+2),f
	line	74
	
l4669:	
	clrf	(__tdiv_to_l_@quot)
	clrf	(__tdiv_to_l_@quot+1)
	clrf	(__tdiv_to_l_@quot+2)
	clrf	(__tdiv_to_l_@quot+3)
	line	75
	
l4671:	
	movlw	low(07Fh)
	subwf	(__tdiv_to_l_@exp1),f
	line	76
	
l4673:	
	movlw	(098h)
	addwf	(__tdiv_to_l_@cntr),w
	movwf	(??__tdiv_to_l_+0)+0
	movf	0+(??__tdiv_to_l_+0)+0,w
	subwf	(__tdiv_to_l_@exp1),f
	line	77
	movlw	(018h)
	movwf	(__tdiv_to_l_@cntr)
	line	79
	
l4675:	
	clrc
	rlf	(__tdiv_to_l_@quot),f
	rlf	(__tdiv_to_l_@quot+1),f
	rlf	(__tdiv_to_l_@quot+2),f
	rlf	(__tdiv_to_l_@quot+3),f
	line	80
	
l4677:	
	movf	(__tdiv_to_l_@f2+2),w
	subwf	(__tdiv_to_l_@f1+2),w
	skipz
	goto	u1525
	movf	(__tdiv_to_l_@f2+1),w
	subwf	(__tdiv_to_l_@f1+1),w
	skipz
	goto	u1525
	movf	(__tdiv_to_l_@f2),w
	subwf	(__tdiv_to_l_@f1),w
u1525:
	skipc
	goto	u1521
	goto	u1520
u1521:
	goto	l4683
u1520:
	line	81
	
l4679:	
	movf	(__tdiv_to_l_@f2),w
	subwf	(__tdiv_to_l_@f1),f
	movf	(__tdiv_to_l_@f2+1),w
	skipc
	incfsz	(__tdiv_to_l_@f2+1),w
	subwf	(__tdiv_to_l_@f1+1),f
	movf	(__tdiv_to_l_@f2+2),w
	skipc
	incf	(__tdiv_to_l_@f2+2),w
	subwf	(__tdiv_to_l_@f1+2),f
	line	82
	
l4681:	
	bsf	(__tdiv_to_l_@quot)+(0/8),(0)&7
	line	84
	
l4683:	
	clrc
	rlf	(__tdiv_to_l_@f1),f
	rlf	(__tdiv_to_l_@f1+1),f
	rlf	(__tdiv_to_l_@f1+2),f
	line	85
	
l4685:	
	decfsz	(__tdiv_to_l_@cntr),f
	goto	u1531
	goto	u1530
u1531:
	goto	l4675
u1530:
	
l2443:	
	line	86
	btfss	(__tdiv_to_l_@exp1),7
	goto	u1541
	goto	u1540
u1541:
	goto	l4695
u1540:
	line	87
	
l4687:	
	movf	(__tdiv_to_l_@exp1),w
	xorlw	80h
	addlw	-((-23)^80h)
	skipnc
	goto	u1551
	goto	u1550
u1551:
	goto	l4691
u1550:
	goto	l4659
	line	90
	
l4691:	
	clrc
	rrf	(__tdiv_to_l_@quot+3),f
	rrf	(__tdiv_to_l_@quot+2),f
	rrf	(__tdiv_to_l_@quot+1),f
	rrf	(__tdiv_to_l_@quot),f
	line	91
	
l4693:	
	incfsz	(__tdiv_to_l_@exp1),f
	goto	u1561
	goto	u1560
u1561:
	goto	l4691
u1560:
	goto	l4701
	line	93
	
l4695:	
	movlw	(018h)
	subwf	(__tdiv_to_l_@exp1),w
	skipc
	goto	u1571
	goto	u1570
u1571:
	goto	l2450
u1570:
	goto	l4659
	line	96
	
l4699:	
	clrc
	rlf	(__tdiv_to_l_@quot),f
	rlf	(__tdiv_to_l_@quot+1),f
	rlf	(__tdiv_to_l_@quot+2),f
	rlf	(__tdiv_to_l_@quot+3),f
	line	97
	decf	(__tdiv_to_l_@exp1),f
	line	98
	
l2450:	
	line	95
	movf	(__tdiv_to_l_@exp1),f
	skipz
	goto	u1581
	goto	u1580
u1581:
	goto	l4699
u1580:
	line	100
	
l4701:	
	movf	(__tdiv_to_l_@quot+3),w
	movwf	(?__tdiv_to_l_+3)
	movf	(__tdiv_to_l_@quot+2),w
	movwf	(?__tdiv_to_l_+2)
	movf	(__tdiv_to_l_@quot+1),w
	movwf	(?__tdiv_to_l_+1)
	movf	(__tdiv_to_l_@quot),w
	movwf	(?__tdiv_to_l_)

	line	101
	
l2439:	
	return
	opt stack 0
GLOBAL	__end_of__tdiv_to_l_
	__end_of__tdiv_to_l_:
;; =============== function __tdiv_to_l_ ends ============

	signat	__tdiv_to_l_,8316
	global	_getch
psect	text577,local,class=CODE,delta=2
global __ptext577
__ptext577:

;; *************** function _getch *****************
;; Defined at:
;;		line 235 in file "C:\Users\petir\Documents\PIC_PROG\C_PuertoSerial\C_PuertoSerial_usart.c"
;; Parameters:    Size  Location     Type
;;		None
;; Auto vars:     Size  Location     Type
;;		None
;; Return value:  Size  Location     Type
;;                  1    wreg      unsigned char 
;; Registers used:
;;		wreg
;; Tracked objects:
;;		On entry : 0/0
;;		On exit  : 60/0
;;		Unchanged: FFF9F/0
;; Data sizes:     COMMON   BANK0   BANK1   BANK3   BANK2
;;      Params:         0       0       0       0       0
;;      Locals:         0       0       0       0       0
;;      Temps:          0       0       0       0       0
;;      Totals:         0       0       0       0       0
;;Total ram usage:        0 bytes
;; Hardware stack levels used:    1
;; This function calls:
;;		Nothing
;; This function is called by:
;;		_gets_Serial
;; This function uses a non-reentrant model
;;
psect	text577
	file	"C:\Users\petir\Documents\PIC_PROG\C_PuertoSerial\C_PuertoSerial_usart.c"
	line	235
	global	__size_of_getch
	__size_of_getch	equ	__end_of_getch-_getch
	
_getch:	
	opt	stack 6
; Regs used in _getch: [wreg]
	line	236
	
l4651:	
;C_PuertoSerial_usart.c: 236: while(!RCIF) continue;
	
l1108:	
	bcf	status, 5	;RP0=0, select bank0
	bcf	status, 6	;RP1=0, select bank0
	btfss	(101/8),(101)&7
	goto	u1491
	goto	u1490
u1491:
	goto	l1108
u1490:
	line	237
	
l4653:	
;C_PuertoSerial_usart.c: 237: return RCREG;
	movf	(26),w	;volatile
	line	238
	
l1111:	
	return
	opt stack 0
GLOBAL	__end_of_getch
	__end_of_getch:
;; =============== function _getch ends ============

	signat	_getch,89
	global	_putch
psect	text578,local,class=CODE,delta=2
global __ptext578
__ptext578:

;; *************** function _putch *****************
;; Defined at:
;;		line 229 in file "C:\Users\petir\Documents\PIC_PROG\C_PuertoSerial\C_PuertoSerial_usart.c"
;; Parameters:    Size  Location     Type
;;  dato            1    wreg     unsigned char 
;; Auto vars:     Size  Location     Type
;;  dato            1    0[COMMON] unsigned char 
;; Return value:  Size  Location     Type
;;		None               void
;; Registers used:
;;		wreg
;; Tracked objects:
;;		On entry : 0/20
;;		On exit  : 60/0
;;		Unchanged: FFF9F/0
;; Data sizes:     COMMON   BANK0   BANK1   BANK3   BANK2
;;      Params:         0       0       0       0       0
;;      Locals:         1       0       0       0       0
;;      Temps:          0       0       0       0       0
;;      Totals:         1       0       0       0       0
;;Total ram usage:        1 bytes
;; Hardware stack levels used:    1
;; This function calls:
;;		Nothing
;; This function is called by:
;;		_main
;; This function uses a non-reentrant model
;;
psect	text578
	file	"C:\Users\petir\Documents\PIC_PROG\C_PuertoSerial\C_PuertoSerial_usart.c"
	line	229
	global	__size_of_putch
	__size_of_putch	equ	__end_of_putch-_putch
	
_putch:	
	opt	stack 7
; Regs used in _putch: [wreg]
;putch@dato stored from wreg
	movwf	(putch@dato)
	line	230
	
l4647:	
;C_PuertoSerial_usart.c: 230: while(!TXIF) continue;
	
l1102:	
	bcf	status, 5	;RP0=0, select bank0
	bcf	status, 6	;RP1=0, select bank0
	btfss	(100/8),(100)&7
	goto	u1481
	goto	u1480
u1481:
	goto	l1102
u1480:
	line	231
	
l4649:	
;C_PuertoSerial_usart.c: 231: TXREG=dato;
	movf	(putch@dato),w
	movwf	(25)	;volatile
	line	232
	
l1105:	
	return
	opt stack 0
GLOBAL	__end_of_putch
	__end_of_putch:
;; =============== function _putch ends ============

	signat	_putch,4216
	global	_msecbase
psect	text579,local,class=CODE,delta=2
global __ptext579
__ptext579:

;; *************** function _msecbase *****************
;; Defined at:
;;		line 12 in file "C:\Users\petir\Documents\PIC_PROG\C_PuertoSerial\C_PuertoSerial_usart.c"
;; Parameters:    Size  Location     Type
;;		None
;; Auto vars:     Size  Location     Type
;;		None
;; Return value:  Size  Location     Type
;;		None               void
;; Registers used:
;;		wreg
;; Tracked objects:
;;		On entry : 0/0
;;		On exit  : 0/0
;;		Unchanged: FFF9F/0
;; Data sizes:     COMMON   BANK0   BANK1   BANK3   BANK2
;;      Params:         0       0       0       0       0
;;      Locals:         0       0       0       0       0
;;      Temps:          0       0       0       0       0
;;      Totals:         0       0       0       0       0
;;Total ram usage:        0 bytes
;; Hardware stack levels used:    1
;; This function calls:
;;		Nothing
;; This function is called by:
;;		_pause
;; This function uses a non-reentrant model
;;
psect	text579
	file	"C:\Users\petir\Documents\PIC_PROG\C_PuertoSerial\C_PuertoSerial_usart.c"
	line	12
	global	__size_of_msecbase
	__size_of_msecbase	equ	__end_of_msecbase-_msecbase
	
_msecbase:	
	opt	stack 4
; Regs used in _msecbase: [wreg]
	line	15
	
l4645:	
;C_PuertoSerial_usart.c: 15: OPTION_REG = 0b00000001;
	movlw	(01h)
	bsf	status, 5	;RP0=1, select bank1
	bcf	status, 6	;RP1=0, select bank1
	movwf	(129)^080h	;volatile
	line	16
;C_PuertoSerial_usart.c: 16: TMR0 = 0x07;
	movlw	(07h)
	bcf	status, 5	;RP0=0, select bank0
	movwf	(1)	;volatile
	line	17
;C_PuertoSerial_usart.c: 17: while(!T0IF);
	
l1055:	
	btfss	(90/8),(90)&7
	goto	u1471
	goto	u1470
u1471:
	goto	l1055
u1470:
	
l1057:	
	line	18
;C_PuertoSerial_usart.c: 18: T0IF = 0;
	bcf	(90/8),(90)&7
	line	19
	
l1058:	
	return
	opt stack 0
GLOBAL	__end_of_msecbase
	__end_of_msecbase:
;; =============== function _msecbase ends ============

	signat	_msecbase,88
psect	text580,local,class=CODE,delta=2
global __ptext580
__ptext580:
	global	btemp
	btemp set 07Eh

	DABS	1,126,2	;btemp
	global	wtemp0
	wtemp0 set btemp
	end
